
testsoc.elf:     file format elf32-littleriscv


Disassembly of section .vectors:

00000000 <_stack_start-0x20000>:
   0:	00000013          	nop
   4:	00000013          	nop
   8:	00000013          	nop
   c:	00000013          	nop
  10:	00000013          	nop
  14:	00000013          	nop
  18:	00000013          	nop
  1c:	00000013          	nop
  20:	00000013          	nop
  24:	00000013          	nop
  28:	00000013          	nop
  2c:	00000013          	nop
  30:	00000013          	nop
  34:	00000013          	nop
  38:	00000013          	nop
  3c:	00000013          	nop
  40:	00000013          	nop
  44:	00000013          	nop
  48:	00000013          	nop
  4c:	00000013          	nop
  50:	00000013          	nop
  54:	00000013          	nop
  58:	00000013          	nop
  5c:	00000013          	nop
  60:	00000013          	nop
  64:	00000013          	nop
  68:	00000013          	nop
  6c:	00000013          	nop
  70:	00000013          	nop
  74:	00000013          	nop
  78:	00000013          	nop
  7c:	00000013          	nop
  80:	00c0006f          	j	8c <_stext>
  84:	00000013          	nop
  88:	00000013          	nop

Disassembly of section .text:

0000008c <_stext>:
      8c:	00000093          	li	ra,0
      90:	00008113          	mv	sp,ra
      94:	00008193          	mv	gp,ra
      98:	00008213          	mv	tp,ra
      9c:	00008293          	mv	t0,ra
      a0:	00008313          	mv	t1,ra
      a4:	00008393          	mv	t2,ra
      a8:	00008413          	mv	s0,ra
      ac:	00008493          	mv	s1,ra
      b0:	00008513          	mv	a0,ra
      b4:	00008593          	mv	a1,ra
      b8:	00008613          	mv	a2,ra
      bc:	00008693          	mv	a3,ra
      c0:	00008713          	mv	a4,ra
      c4:	00008793          	mv	a5,ra
      c8:	00008813          	mv	a6,ra
      cc:	00008893          	mv	a7,ra
      d0:	00008913          	mv	s2,ra
      d4:	00008993          	mv	s3,ra
      d8:	00008a13          	mv	s4,ra
      dc:	00008a93          	mv	s5,ra
      e0:	00008b13          	mv	s6,ra
      e4:	00008b93          	mv	s7,ra
      e8:	00008c13          	mv	s8,ra
      ec:	00008c93          	mv	s9,ra
      f0:	00008d13          	mv	s10,ra
      f4:	00008d93          	mv	s11,ra
      f8:	00008e13          	mv	t3,ra
      fc:	00008e93          	mv	t4,ra
     100:	00008f13          	mv	t5,ra
     104:	00008f93          	mv	t6,ra
     108:	00020117          	auipc	sp,0x20
     10c:	ef810113          	addi	sp,sp,-264 # 20000 <_stack_start>

00000110 <_start>:
     110:	00000513          	li	a0,0
     114:	00000593          	li	a1,0
     118:	120090ef          	jal	ra,9238 <main>

0000011c <uart_init_0>:
     11c:	000117b7          	lui	a5,0x11
     120:	80000737          	lui	a4,0x80000
     124:	92e7a023          	sw	a4,-1760(a5) # 10920 <uart_0>
     128:	00008067          	ret

0000012c <uart_init_1>:
     12c:	000117b7          	lui	a5,0x11
     130:	80001737          	lui	a4,0x80001
     134:	90e7ae23          	sw	a4,-1764(a5) # 1091c <uart_1>
     138:	00008067          	ret

0000013c <uart_set_cfg>:
     13c:	ff010113          	addi	sp,sp,-16
     140:	00a12623          	sw	a0,12(sp)
     144:	00b11523          	sh	a1,10(sp)
     148:	800007b7          	lui	a5,0x80000
     14c:	8000a737          	lui	a4,0x8000a
     150:	04f60c63          	beq	a2,a5,1a8 <uart_set_cfg+0x6c>
     154:	00472283          	lw	t0,4(a4) # 8000a004 <__spectre_array_end+0x7ff0a004>
     158:	0042e313          	ori	t1,t0,4
     15c:	00672223          	sw	t1,4(a4)
     160:	08300593          	li	a1,131
     164:	00b62623          	sw	a1,12(a2)
     168:	00a15683          	lhu	a3,10(sp)
     16c:	0a700e93          	li	t4,167
     170:	00300f13          	li	t5,3
     174:	0086d813          	srli	a6,a3,0x8
     178:	01062223          	sw	a6,4(a2)
     17c:	00a15883          	lhu	a7,10(sp)
     180:	0ff8fe13          	zext.b	t3,a7
     184:	01c62023          	sw	t3,0(a2)
     188:	01d62423          	sw	t4,8(a2)
     18c:	01e62623          	sw	t5,12(a2)
     190:	00462f83          	lw	t6,4(a2)
     194:	0f0ff793          	andi	a5,t6,240
     198:	0027e713          	ori	a4,a5,2
     19c:	00e62223          	sw	a4,4(a2)
     1a0:	01010113          	addi	sp,sp,16
     1a4:	00008067          	ret
     1a8:	00472383          	lw	t2,4(a4)
     1ac:	0023e513          	ori	a0,t2,2
     1b0:	00a72223          	sw	a0,4(a4)
     1b4:	fadff06f          	j	160 <uart_set_cfg+0x24>

000001b8 <uart_send>:
     1b8:	fe010113          	addi	sp,sp,-32
     1bc:	00b12623          	sw	a1,12(sp)
     1c0:	00c12783          	lw	a5,12(sp)
     1c4:	06078463          	beqz	a5,22c <uart_send+0x74>
     1c8:	03f00693          	li	a3,63
     1cc:	01462283          	lw	t0,20(a2)
     1d0:	0202f313          	andi	t1,t0,32
     1d4:	fe030ce3          	beqz	t1,1cc <uart_send+0x14>
     1d8:	00012e23          	sw	zero,28(sp)
     1dc:	01c12383          	lw	t2,28(sp)
     1e0:	0276fc63          	bgeu	a3,t2,218 <uart_send+0x60>
     1e4:	0400006f          	j	224 <uart_send+0x6c>
     1e8:	00054803          	lbu	a6,0(a0)
     1ec:	00070513          	mv	a0,a4
     1f0:	0ff87893          	zext.b	a7,a6
     1f4:	01162023          	sw	a7,0(a2)
     1f8:	00c12e03          	lw	t3,12(sp)
     1fc:	fffe0e93          	addi	t4,t3,-1
     200:	01d12623          	sw	t4,12(sp)
     204:	01c12f03          	lw	t5,28(sp)
     208:	001f0f93          	addi	t6,t5,1
     20c:	01f12e23          	sw	t6,28(sp)
     210:	01c12783          	lw	a5,28(sp)
     214:	00f6e863          	bltu	a3,a5,224 <uart_send+0x6c>
     218:	00c12583          	lw	a1,12(sp)
     21c:	00150713          	addi	a4,a0,1
     220:	fc0594e3          	bnez	a1,1e8 <uart_send+0x30>
     224:	00c12283          	lw	t0,12(sp)
     228:	fa0292e3          	bnez	t0,1cc <uart_send+0x14>
     22c:	02010113          	addi	sp,sp,32
     230:	00008067          	ret

00000234 <uart_getchar>:
     234:	01452783          	lw	a5,20(a0)
     238:	0017f293          	andi	t0,a5,1
     23c:	fe028ce3          	beqz	t0,234 <uart_getchar>
     240:	00052503          	lw	a0,0(a0)
     244:	0ff57513          	zext.b	a0,a0
     248:	00008067          	ret

0000024c <uart_sendchar>:
     24c:	ff010113          	addi	sp,sp,-16
     250:	00a107a3          	sb	a0,15(sp)
     254:	0145a783          	lw	a5,20(a1)
     258:	0207f293          	andi	t0,a5,32
     25c:	fe028ce3          	beqz	t0,254 <uart_sendchar+0x8>
     260:	00f14303          	lbu	t1,15(sp)
     264:	0ff37393          	zext.b	t2,t1
     268:	0075a023          	sw	t2,0(a1)
     26c:	01010113          	addi	sp,sp,16
     270:	00008067          	ret

00000274 <uart_wait_tx_done>:
     274:	01452783          	lw	a5,20(a0)
     278:	0407f293          	andi	t0,a5,64
     27c:	fe028ce3          	beqz	t0,274 <uart_wait_tx_done>
     280:	00008067          	ret

00000284 <uart_set_line_cfg>:
     284:	fe010113          	addi	sp,sp,-32
     288:	00a107a3          	sb	a0,15(sp)
     28c:	00b10723          	sb	a1,14(sp)
     290:	00c106a3          	sb	a2,13(sp)
     294:	00d10623          	sb	a3,12(sp)
     298:	00e105a3          	sb	a4,11(sp)
     29c:	80000737          	lui	a4,0x80000
     2a0:	8000a6b7          	lui	a3,0x8000a
     2a4:	08e78463          	beq	a5,a4,32c <uart_set_line_cfg+0xa8>
     2a8:	0046a283          	lw	t0,4(a3) # 8000a004 <__spectre_array_end+0x7ff0a004>
     2ac:	0042e313          	ori	t1,t0,4
     2b0:	0066a223          	sw	t1,4(a3)
     2b4:	00c7a583          	lw	a1,12(a5) # 8000000c <__spectre_array_end+0x7ff0000c>
     2b8:	00b12e23          	sw	a1,28(sp)
     2bc:	00b14883          	lbu	a7,11(sp)
     2c0:	00c14e03          	lbu	t3,12(sp)
     2c4:	00e14e83          	lbu	t4,14(sp)
     2c8:	00f14f03          	lbu	t5,15(sp)
     2cc:	00d14603          	lbu	a2,13(sp)
     2d0:	01c12803          	lw	a6,28(sp)
     2d4:	ffb88f93          	addi	t6,a7,-5
     2d8:	003e9693          	slli	a3,t4,0x3
     2dc:	003ff713          	andi	a4,t6,3
     2e0:	0086f293          	andi	t0,a3,8
     2e4:	00576333          	or	t1,a4,t0
     2e8:	0c087393          	andi	t2,a6,192
     2ec:	001f3513          	seqz	a0,t5
     2f0:	007368b3          	or	a7,t1,t2
     2f4:	00551593          	slli	a1,a0,0x5
     2f8:	00461e93          	slli	t4,a2,0x4
     2fc:	fffe0e13          	addi	t3,t3,-1
     300:	00b8ef33          	or	t5,a7,a1
     304:	010ef613          	andi	a2,t4,16
     308:	002e1813          	slli	a6,t3,0x2
     30c:	00cf6fb3          	or	t6,t5,a2
     310:	00487693          	andi	a3,a6,4
     314:	00dfe733          	or	a4,t6,a3
     318:	00e12e23          	sw	a4,28(sp)
     31c:	01c12283          	lw	t0,28(sp)
     320:	0057a623          	sw	t0,12(a5)
     324:	02010113          	addi	sp,sp,32
     328:	00008067          	ret
     32c:	0046a383          	lw	t2,4(a3)
     330:	0023e513          	ori	a0,t2,2
     334:	00a6a223          	sw	a0,4(a3)
     338:	f7dff06f          	j	2b4 <uart_set_line_cfg+0x30>

0000033c <uart_get_line_cfg>:
     33c:	800007b7          	lui	a5,0x80000
     340:	ff010113          	addi	sp,sp,-16
     344:	8000a737          	lui	a4,0x8000a
     348:	02f50263          	beq	a0,a5,36c <uart_get_line_cfg+0x30>
     34c:	00472283          	lw	t0,4(a4) # 8000a004 <__spectre_array_end+0x7ff0a004>
     350:	0042e313          	ori	t1,t0,4
     354:	00672223          	sw	t1,4(a4)
     358:	00c52503          	lw	a0,12(a0)
     35c:	00a12623          	sw	a0,12(sp)
     360:	00c12503          	lw	a0,12(sp)
     364:	01010113          	addi	sp,sp,16
     368:	00008067          	ret
     36c:	00472383          	lw	t2,4(a4)
     370:	0023e593          	ori	a1,t2,2
     374:	00b72223          	sw	a1,4(a4)
     378:	00c52503          	lw	a0,12(a0)
     37c:	00a12623          	sw	a0,12(sp)
     380:	00c12503          	lw	a0,12(sp)
     384:	01010113          	addi	sp,sp,16
     388:	00008067          	ret

0000038c <uart_set_counter>:
     38c:	fe010113          	addi	sp,sp,-32
     390:	00a11723          	sh	a0,14(sp)
     394:	00c5a783          	lw	a5,12(a1)
     398:	0ff7f293          	zext.b	t0,a5
     39c:	00510fa3          	sb	t0,31(sp)
     3a0:	01f14303          	lbu	t1,31(sp)
     3a4:	08036393          	ori	t2,t1,128
     3a8:	00710fa3          	sb	t2,31(sp)
     3ac:	01f14503          	lbu	a0,31(sp)
     3b0:	0ff57613          	zext.b	a2,a0
     3b4:	00c5a623          	sw	a2,12(a1)
     3b8:	00e15683          	lhu	a3,14(sp)
     3bc:	0086d713          	srli	a4,a3,0x8
     3c0:	00e5a223          	sw	a4,4(a1)
     3c4:	00e15803          	lhu	a6,14(sp)
     3c8:	0ff87893          	zext.b	a7,a6
     3cc:	0115a023          	sw	a7,0(a1)
     3d0:	01f14e03          	lbu	t3,31(sp)
     3d4:	07fe7e93          	andi	t4,t3,127
     3d8:	01d10fa3          	sb	t4,31(sp)
     3dc:	01f14f03          	lbu	t5,31(sp)
     3e0:	0fff7f93          	zext.b	t6,t5
     3e4:	01f5a623          	sw	t6,12(a1)
     3e8:	02010113          	addi	sp,sp,32
     3ec:	00008067          	ret

000003f0 <uart_get_counter>:
     3f0:	00c52783          	lw	a5,12(a0)
     3f4:	ff010113          	addi	sp,sp,-16
     3f8:	00010737          	lui	a4,0x10
     3fc:	0ff7f293          	zext.b	t0,a5
     400:	005103a3          	sb	t0,7(sp)
     404:	00714303          	lbu	t1,7(sp)
     408:	fff70893          	addi	a7,a4,-1 # ffff <__DTOR_END__+0x62db>
     40c:	08036393          	ori	t2,t1,128
     410:	007103a3          	sb	t2,7(sp)
     414:	00714583          	lbu	a1,7(sp)
     418:	0ff5f613          	zext.b	a2,a1
     41c:	00c52623          	sw	a2,12(a0)
     420:	00012423          	sw	zero,8(sp)
     424:	00012623          	sw	zero,12(sp)
     428:	00452683          	lw	a3,4(a0)
     42c:	00869813          	slli	a6,a3,0x8
     430:	01187e33          	and	t3,a6,a7
     434:	01c12423          	sw	t3,8(sp)
     438:	00052e83          	lw	t4,0(a0)
     43c:	0ffeff13          	zext.b	t5,t4
     440:	01e12623          	sw	t5,12(sp)
     444:	00714f83          	lbu	t6,7(sp)
     448:	07fff793          	andi	a5,t6,127
     44c:	00f103a3          	sb	a5,7(sp)
     450:	00714283          	lbu	t0,7(sp)
     454:	0ff2f313          	zext.b	t1,t0
     458:	00652623          	sw	t1,12(a0)
     45c:	00812503          	lw	a0,8(sp)
     460:	00c12383          	lw	t2,12(sp)
     464:	01010113          	addi	sp,sp,16
     468:	00756533          	or	a0,a0,t2
     46c:	00008067          	ret

00000470 <uart_set_fifo_en>:
     470:	fe010113          	addi	sp,sp,-32
     474:	00a12623          	sw	a0,12(sp)
     478:	00b105a3          	sb	a1,11(sp)
     47c:	00c62783          	lw	a5,12(a2)
     480:	0ff7f293          	zext.b	t0,a5
     484:	00510f23          	sb	t0,30(sp)
     488:	01e14303          	lbu	t1,30(sp)
     48c:	08036393          	ori	t2,t1,128
     490:	00710f23          	sb	t2,30(sp)
     494:	01e14503          	lbu	a0,30(sp)
     498:	0ff57593          	zext.b	a1,a0
     49c:	00b62623          	sw	a1,12(a2)
     4a0:	00010fa3          	sb	zero,31(sp)
     4a4:	00c12683          	lw	a3,12(sp)
     4a8:	04068863          	beqz	a3,4f8 <uart_set_fifo_en+0x88>
     4ac:	00b14783          	lbu	a5,11(sp)
     4b0:	01f14283          	lbu	t0,31(sp)
     4b4:	00679313          	slli	t1,a5,0x6
     4b8:	0182f393          	andi	t2,t0,24
     4bc:	00736533          	or	a0,t1,t2
     4c0:	02756593          	ori	a1,a0,39
     4c4:	0ff5f693          	zext.b	a3,a1
     4c8:	00d10fa3          	sb	a3,31(sp)
     4cc:	01f14803          	lbu	a6,31(sp)
     4d0:	0ff87713          	zext.b	a4,a6
     4d4:	00e62423          	sw	a4,8(a2)
     4d8:	01e14883          	lbu	a7,30(sp)
     4dc:	07f8fe13          	andi	t3,a7,127
     4e0:	01c10f23          	sb	t3,30(sp)
     4e4:	01e14e83          	lbu	t4,30(sp)
     4e8:	0ffeff13          	zext.b	t5,t4
     4ec:	01e62623          	sw	t5,12(a2)
     4f0:	02010113          	addi	sp,sp,32
     4f4:	00008067          	ret
     4f8:	00b14803          	lbu	a6,11(sp)
     4fc:	01f14703          	lbu	a4,31(sp)
     500:	00681893          	slli	a7,a6,0x6
     504:	01877e13          	andi	t3,a4,24
     508:	01c8eeb3          	or	t4,a7,t3
     50c:	007eef13          	ori	t5,t4,7
     510:	0fff7f93          	zext.b	t6,t5
     514:	01f10fa3          	sb	t6,31(sp)
     518:	fb5ff06f          	j	4cc <uart_set_fifo_en+0x5c>

0000051c <uart_set_rda_irq_en>:
     51c:	00452783          	lw	a5,4(a0)
     520:	ff010113          	addi	sp,sp,-16
     524:	0ff7f293          	zext.b	t0,a5
     528:	005107a3          	sb	t0,15(sp)
     52c:	00f14303          	lbu	t1,15(sp)
     530:	00136393          	ori	t2,t1,1
     534:	007107a3          	sb	t2,15(sp)
     538:	00f14583          	lbu	a1,15(sp)
     53c:	0ff5f613          	zext.b	a2,a1
     540:	00c52223          	sw	a2,4(a0)
     544:	01010113          	addi	sp,sp,16
     548:	00008067          	ret

0000054c <uart_set_rda_irq_disable>:
     54c:	00452783          	lw	a5,4(a0)
     550:	ff010113          	addi	sp,sp,-16
     554:	0ff7f293          	zext.b	t0,a5
     558:	005107a3          	sb	t0,15(sp)
     55c:	00f14303          	lbu	t1,15(sp)
     560:	0fe37393          	andi	t2,t1,254
     564:	007107a3          	sb	t2,15(sp)
     568:	00f14583          	lbu	a1,15(sp)
     56c:	0ff5f613          	zext.b	a2,a1
     570:	00c52223          	sw	a2,4(a0)
     574:	01010113          	addi	sp,sp,16
     578:	00008067          	ret

0000057c <uart_set_thi_irq_en>:
     57c:	00452783          	lw	a5,4(a0)
     580:	ff010113          	addi	sp,sp,-16
     584:	0ff7f293          	zext.b	t0,a5
     588:	005107a3          	sb	t0,15(sp)
     58c:	00f14303          	lbu	t1,15(sp)
     590:	00236393          	ori	t2,t1,2
     594:	007107a3          	sb	t2,15(sp)
     598:	00f14583          	lbu	a1,15(sp)
     59c:	0ff5f613          	zext.b	a2,a1
     5a0:	00c52223          	sw	a2,4(a0)
     5a4:	01010113          	addi	sp,sp,16
     5a8:	00008067          	ret

000005ac <uart_set_thi_irq_disable>:
     5ac:	00452783          	lw	a5,4(a0)
     5b0:	ff010113          	addi	sp,sp,-16
     5b4:	0ff7f293          	zext.b	t0,a5
     5b8:	005107a3          	sb	t0,15(sp)
     5bc:	00f14303          	lbu	t1,15(sp)
     5c0:	0fd37393          	andi	t2,t1,253
     5c4:	007107a3          	sb	t2,15(sp)
     5c8:	00f14583          	lbu	a1,15(sp)
     5cc:	0ff5f613          	zext.b	a2,a1
     5d0:	00c52223          	sw	a2,4(a0)
     5d4:	01010113          	addi	sp,sp,16
     5d8:	00008067          	ret

000005dc <uart_set_rls_irq_en>:
     5dc:	00452783          	lw	a5,4(a0)
     5e0:	ff010113          	addi	sp,sp,-16
     5e4:	0ff7f293          	zext.b	t0,a5
     5e8:	005107a3          	sb	t0,15(sp)
     5ec:	00f14303          	lbu	t1,15(sp)
     5f0:	00436393          	ori	t2,t1,4
     5f4:	007107a3          	sb	t2,15(sp)
     5f8:	00f14583          	lbu	a1,15(sp)
     5fc:	0ff5f613          	zext.b	a2,a1
     600:	00c52223          	sw	a2,4(a0)
     604:	01010113          	addi	sp,sp,16
     608:	00008067          	ret

0000060c <uart_set_rls_irq_disable>:
     60c:	00452783          	lw	a5,4(a0)
     610:	ff010113          	addi	sp,sp,-16
     614:	0ff7f293          	zext.b	t0,a5
     618:	005107a3          	sb	t0,15(sp)
     61c:	00f14303          	lbu	t1,15(sp)
     620:	0fb37393          	andi	t2,t1,251
     624:	007107a3          	sb	t2,15(sp)
     628:	00f14583          	lbu	a1,15(sp)
     62c:	0ff5f613          	zext.b	a2,a1
     630:	00c52223          	sw	a2,4(a0)
     634:	01010113          	addi	sp,sp,16
     638:	00008067          	ret

0000063c <uart_get_irq_id>:
     63c:	00852783          	lw	a5,8(a0)
     640:	ff010113          	addi	sp,sp,-16
     644:	00f7f293          	andi	t0,a5,15
     648:	005107a3          	sb	t0,15(sp)
     64c:	00f14503          	lbu	a0,15(sp)
     650:	01010113          	addi	sp,sp,16
     654:	00008067          	ret

00000658 <uart_get_rls_irq_cause>:
     658:	01452783          	lw	a5,20(a0)
     65c:	ff010113          	addi	sp,sp,-16
     660:	0017d293          	srli	t0,a5,0x1
     664:	00f2f313          	andi	t1,t0,15
     668:	006107a3          	sb	t1,15(sp)
     66c:	00f14503          	lbu	a0,15(sp)
     670:	01010113          	addi	sp,sp,16
     674:	00008067          	ret

00000678 <uart_reset_rxfifo>:
     678:	00852783          	lw	a5,8(a0)
     67c:	ff010113          	addi	sp,sp,-16
     680:	0ff7f293          	zext.b	t0,a5
     684:	005107a3          	sb	t0,15(sp)
     688:	00f14303          	lbu	t1,15(sp)
     68c:	0fd37393          	andi	t2,t1,253
     690:	007107a3          	sb	t2,15(sp)
     694:	00f14583          	lbu	a1,15(sp)
     698:	0ff5f613          	zext.b	a2,a1
     69c:	00c52223          	sw	a2,4(a0)
     6a0:	01010113          	addi	sp,sp,16
     6a4:	00008067          	ret

000006a8 <uart_reset_txfifo>:
     6a8:	00852783          	lw	a5,8(a0)
     6ac:	ff010113          	addi	sp,sp,-16
     6b0:	0ff7f293          	zext.b	t0,a5
     6b4:	005107a3          	sb	t0,15(sp)
     6b8:	00f14303          	lbu	t1,15(sp)
     6bc:	0fb37393          	andi	t2,t1,251
     6c0:	007107a3          	sb	t2,15(sp)
     6c4:	00f14583          	lbu	a1,15(sp)
     6c8:	0ff5f613          	zext.b	a2,a1
     6cc:	00c52223          	sw	a2,4(a0)
     6d0:	01010113          	addi	sp,sp,16
     6d4:	00008067          	ret

000006d8 <timer_0A_init>:
     6d8:	000117b7          	lui	a5,0x11
     6dc:	80001737          	lui	a4,0x80001
     6e0:	92e7a823          	sw	a4,-1744(a5) # 10930 <timer_0A>
     6e4:	00008067          	ret

000006e8 <timer_0B_init>:
     6e8:	800017b7          	lui	a5,0x80001
     6ec:	00011737          	lui	a4,0x11
     6f0:	01078293          	addi	t0,a5,16 # 80001010 <__spectre_array_end+0x7ff01010>
     6f4:	92572623          	sw	t0,-1748(a4) # 1092c <timer_0B>
     6f8:	00008067          	ret

000006fc <timer_1A_init>:
     6fc:	000117b7          	lui	a5,0x11
     700:	80006737          	lui	a4,0x80006
     704:	92e7a423          	sw	a4,-1752(a5) # 10928 <timer_1A>
     708:	00008067          	ret

0000070c <timer_1B_init>:
     70c:	800067b7          	lui	a5,0x80006
     710:	00011737          	lui	a4,0x11
     714:	01078293          	addi	t0,a5,16 # 80006010 <__spectre_array_end+0x7ff06010>
     718:	92572223          	sw	t0,-1756(a4) # 10924 <timer_1B>
     71c:	00008067          	ret

00000720 <reset_timer>:
     720:	00052023          	sw	zero,0(a0)
     724:	00008067          	ret

00000728 <start_timer>:
     728:	00452783          	lw	a5,4(a0)
     72c:	ff010113          	addi	sp,sp,-16
     730:	00f12623          	sw	a5,12(sp)
     734:	00c12283          	lw	t0,12(sp)
     738:	0012e313          	ori	t1,t0,1
     73c:	00612623          	sw	t1,12(sp)
     740:	00c12383          	lw	t2,12(sp)
     744:	00752223          	sw	t2,4(a0)
     748:	01010113          	addi	sp,sp,16
     74c:	00008067          	ret

00000750 <stop_timer>:
     750:	00452783          	lw	a5,4(a0)
     754:	ff010113          	addi	sp,sp,-16
     758:	00f12623          	sw	a5,12(sp)
     75c:	00c12283          	lw	t0,12(sp)
     760:	0fe2f313          	andi	t1,t0,254
     764:	00612623          	sw	t1,12(sp)
     768:	00c12383          	lw	t2,12(sp)
     76c:	00752223          	sw	t2,4(a0)
     770:	01010113          	addi	sp,sp,16
     774:	00008067          	ret

00000778 <get_time>:
     778:	00052503          	lw	a0,0(a0)
     77c:	00008067          	ret

00000780 <get_cmp>:
     780:	00852503          	lw	a0,8(a0)
     784:	00008067          	ret

00000788 <set_cmp>:
     788:	ff010113          	addi	sp,sp,-16
     78c:	00b12623          	sw	a1,12(sp)
     790:	00c12783          	lw	a5,12(sp)
     794:	00f52423          	sw	a5,8(a0)
     798:	01010113          	addi	sp,sp,16
     79c:	00008067          	ret

000007a0 <get_presc>:
     7a0:	00452783          	lw	a5,4(a0)
     7a4:	ff010113          	addi	sp,sp,-16
     7a8:	0027d293          	srli	t0,a5,0x2
     7ac:	00512623          	sw	t0,12(sp)
     7b0:	00c12503          	lw	a0,12(sp)
     7b4:	01010113          	addi	sp,sp,16
     7b8:	00008067          	ret

000007bc <set_presc>:
     7bc:	ff010113          	addi	sp,sp,-16
     7c0:	00b12623          	sw	a1,12(sp)
     7c4:	00c12783          	lw	a5,12(sp)
     7c8:	00279293          	slli	t0,a5,0x2
     7cc:	00512623          	sw	t0,12(sp)
     7d0:	00c12303          	lw	t1,12(sp)
     7d4:	00652223          	sw	t1,4(a0)
     7d8:	01010113          	addi	sp,sp,16
     7dc:	00008067          	ret

000007e0 <barebones_clock>:
     7e0:	000117b7          	lui	a5,0x11
     7e4:	9307a503          	lw	a0,-1744(a5) # 10930 <timer_0A>
     7e8:	f91ff06f          	j	778 <get_time>

000007ec <start_time>:
     7ec:	ff010113          	addi	sp,sp,-16
     7f0:	00912223          	sw	s1,4(sp)
     7f4:	000114b7          	lui	s1,0x11
     7f8:	9304a503          	lw	a0,-1744(s1) # 10930 <timer_0A>
     7fc:	00112623          	sw	ra,12(sp)
     800:	00812423          	sw	s0,8(sp)
     804:	f75ff0ef          	jal	ra,778 <get_time>
     808:	00050793          	mv	a5,a0
     80c:	9304a503          	lw	a0,-1744(s1)
     810:	00011437          	lui	s0,0x11
     814:	92f42c23          	sw	a5,-1736(s0) # 10938 <start_time_val>
     818:	f61ff0ef          	jal	ra,778 <get_time>
     81c:	00c12083          	lw	ra,12(sp)
     820:	92a42c23          	sw	a0,-1736(s0)
     824:	00812403          	lw	s0,8(sp)
     828:	00412483          	lw	s1,4(sp)
     82c:	01010113          	addi	sp,sp,16
     830:	00008067          	ret

00000834 <stop_time>:
     834:	ff010113          	addi	sp,sp,-16
     838:	00912223          	sw	s1,4(sp)
     83c:	000114b7          	lui	s1,0x11
     840:	9304a503          	lw	a0,-1744(s1) # 10930 <timer_0A>
     844:	00112623          	sw	ra,12(sp)
     848:	00812423          	sw	s0,8(sp)
     84c:	f2dff0ef          	jal	ra,778 <get_time>
     850:	00050793          	mv	a5,a0
     854:	9304a503          	lw	a0,-1744(s1)
     858:	00011437          	lui	s0,0x11
     85c:	92f42a23          	sw	a5,-1740(s0) # 10934 <stop_time_val>
     860:	f19ff0ef          	jal	ra,778 <get_time>
     864:	00c12083          	lw	ra,12(sp)
     868:	92a42a23          	sw	a0,-1740(s0)
     86c:	00812403          	lw	s0,8(sp)
     870:	00412483          	lw	s1,4(sp)
     874:	01010113          	addi	sp,sp,16
     878:	00008067          	ret

0000087c <get_time_core>:
     87c:	000117b7          	lui	a5,0x11
     880:	000112b7          	lui	t0,0x11
     884:	9347a503          	lw	a0,-1740(a5) # 10934 <stop_time_val>
     888:	9382a303          	lw	t1,-1736(t0) # 10938 <start_time_val>
     88c:	40650533          	sub	a0,a0,t1
     890:	00008067          	ret

00000894 <time_in_secs>:
     894:	ff010113          	addi	sp,sp,-16
     898:	00112623          	sw	ra,12(sp)
     89c:	614080ef          	jal	ra,8eb0 <__floatunsidf>
     8a0:	000117b7          	lui	a5,0x11
     8a4:	8e87a603          	lw	a2,-1816(a5) # 108e8 <state_known_crc+0x10>
     8a8:	8ec7a683          	lw	a3,-1812(a5)
     8ac:	788070ef          	jal	ra,8034 <__muldf3>
     8b0:	000112b7          	lui	t0,0x11
     8b4:	8f02a603          	lw	a2,-1808(t0) # 108f0 <state_known_crc+0x18>
     8b8:	8f42a683          	lw	a3,-1804(t0)
     8bc:	649060ef          	jal	ra,7704 <__divdf3>
     8c0:	00c12083          	lw	ra,12(sp)
     8c4:	01010113          	addi	sp,sp,16
     8c8:	00008067          	ret

000008cc <portable_init>:
     8cc:	00100793          	li	a5,1
     8d0:	00f50023          	sb	a5,0(a0)
     8d4:	00008067          	ret

000008d8 <portable_fini>:
     8d8:	00050023          	sb	zero,0(a0)
     8dc:	00008067          	ret

000008e0 <cmp_idx>:
     8e0:	00060a63          	beqz	a2,8f4 <cmp_idx+0x14>
     8e4:	00251503          	lh	a0,2(a0)
     8e8:	00259583          	lh	a1,2(a1)
     8ec:	40b50533          	sub	a0,a0,a1
     8f0:	00008067          	ret
     8f4:	00051783          	lh	a5,0(a0)
     8f8:	01079713          	slli	a4,a5,0x10
     8fc:	01075293          	srli	t0,a4,0x10
     900:	f007f313          	andi	t1,a5,-256
     904:	0082d393          	srli	t2,t0,0x8
     908:	00736633          	or	a2,t1,t2
     90c:	00c51023          	sh	a2,0(a0)
     910:	00059683          	lh	a3,0(a1)
     914:	00251503          	lh	a0,2(a0)
     918:	01069813          	slli	a6,a3,0x10
     91c:	01085893          	srli	a7,a6,0x10
     920:	f006fe13          	andi	t3,a3,-256
     924:	0088de93          	srli	t4,a7,0x8
     928:	01de6f33          	or	t5,t3,t4
     92c:	01e59023          	sh	t5,0(a1)
     930:	00259583          	lh	a1,2(a1)
     934:	40b50533          	sub	a0,a0,a1
     938:	00008067          	ret

0000093c <calc_func>:
     93c:	fe010113          	addi	sp,sp,-32
     940:	00812c23          	sw	s0,24(sp)
     944:	00051403          	lh	s0,0(a0)
     948:	00112e23          	sw	ra,28(sp)
     94c:	00912a23          	sw	s1,20(sp)
     950:	40745793          	srai	a5,s0,0x7
     954:	01212823          	sw	s2,16(sp)
     958:	01312623          	sw	s3,12(sp)
     95c:	0017f093          	andi	ra,a5,1
     960:	02008263          	beqz	ra,984 <calc_func+0x48>
     964:	01c12083          	lw	ra,28(sp)
     968:	07f47513          	andi	a0,s0,127
     96c:	01812403          	lw	s0,24(sp)
     970:	01412483          	lw	s1,20(sp)
     974:	01012903          	lw	s2,16(sp)
     978:	00c12983          	lw	s3,12(sp)
     97c:	02010113          	addi	sp,sp,32
     980:	00008067          	ret
     984:	40345713          	srai	a4,s0,0x3
     988:	00f77293          	andi	t0,a4,15
     98c:	00058493          	mv	s1,a1
     990:	00747693          	andi	a3,s0,7
     994:	00429593          	slli	a1,t0,0x4
     998:	0384d783          	lhu	a5,56(s1)
     99c:	00050993          	mv	s3,a0
     9a0:	0055e5b3          	or	a1,a1,t0
     9a4:	04068c63          	beqz	a3,9fc <calc_func+0xc0>
     9a8:	00100513          	li	a0,1
     9ac:	08a68a63          	beq	a3,a0,a40 <calc_func+0x104>
     9b0:	01041e13          	slli	t3,s0,0x10
     9b4:	010e5513          	srli	a0,t3,0x10
     9b8:	00040913          	mv	s2,s0
     9bc:	00078593          	mv	a1,a5
     9c0:	43d000ef          	jal	ra,15fc <crcu16>
     9c4:	00050e93          	mv	t4,a0
     9c8:	f0047f13          	andi	t5,s0,-256
     9cc:	07f97513          	andi	a0,s2,127
     9d0:	01e56fb3          	or	t6,a0,t5
     9d4:	03d49c23          	sh	t4,56(s1)
     9d8:	080fe413          	ori	s0,t6,128
     9dc:	00899023          	sh	s0,0(s3)
     9e0:	01c12083          	lw	ra,28(sp)
     9e4:	01812403          	lw	s0,24(sp)
     9e8:	01412483          	lw	s1,20(sp)
     9ec:	01012903          	lw	s2,16(sp)
     9f0:	00c12983          	lw	s3,12(sp)
     9f4:	02010113          	addi	sp,sp,32
     9f8:	00008067          	ret
     9fc:	02200313          	li	t1,34
     a00:	00058393          	mv	t2,a1
     a04:	0065d463          	bge	a1,t1,a0c <calc_func+0xd0>
     a08:	02200393          	li	t2,34
     a0c:	00049603          	lh	a2,0(s1)
     a10:	00249683          	lh	a3,2(s1)
     a14:	0144a583          	lw	a1,20(s1)
     a18:	0184a503          	lw	a0,24(s1)
     a1c:	0ff3f713          	zext.b	a4,t2
     a20:	3a9010ef          	jal	ra,25c8 <core_bench_state>
     a24:	03e4d603          	lhu	a2,62(s1)
     a28:	01051913          	slli	s2,a0,0x10
     a2c:	41095913          	srai	s2,s2,0x10
     a30:	02061c63          	bnez	a2,a68 <calc_func+0x12c>
     a34:	0384d783          	lhu	a5,56(s1)
     a38:	02a49f23          	sh	a0,62(s1)
     a3c:	f81ff06f          	j	9bc <calc_func+0x80>
     a40:	00078613          	mv	a2,a5
     a44:	02848513          	addi	a0,s1,40
     a48:	448040ef          	jal	ra,4e90 <core_bench_matrix>
     a4c:	03c4d803          	lhu	a6,60(s1)
     a50:	01051893          	slli	a7,a0,0x10
     a54:	4108d913          	srai	s2,a7,0x10
     a58:	00081863          	bnez	a6,a68 <calc_func+0x12c>
     a5c:	0384d783          	lhu	a5,56(s1)
     a60:	02a49e23          	sh	a0,60(s1)
     a64:	f59ff06f          	j	9bc <calc_func+0x80>
     a68:	0384d783          	lhu	a5,56(s1)
     a6c:	f51ff06f          	j	9bc <calc_func+0x80>

00000a70 <cmp_complex>:
     a70:	ff010113          	addi	sp,sp,-16
     a74:	00912223          	sw	s1,4(sp)
     a78:	00058493          	mv	s1,a1
     a7c:	00060593          	mv	a1,a2
     a80:	00112623          	sw	ra,12(sp)
     a84:	00812423          	sw	s0,8(sp)
     a88:	00060413          	mv	s0,a2
     a8c:	eb1ff0ef          	jal	ra,93c <calc_func>
     a90:	00050793          	mv	a5,a0
     a94:	00040593          	mv	a1,s0
     a98:	00048513          	mv	a0,s1
     a9c:	00078413          	mv	s0,a5
     aa0:	e9dff0ef          	jal	ra,93c <calc_func>
     aa4:	00c12083          	lw	ra,12(sp)
     aa8:	40a40533          	sub	a0,s0,a0
     aac:	00812403          	lw	s0,8(sp)
     ab0:	00412483          	lw	s1,4(sp)
     ab4:	01010113          	addi	sp,sp,16
     ab8:	00008067          	ret

00000abc <copy_info>:
     abc:	00059703          	lh	a4,0(a1)
     ac0:	00259783          	lh	a5,2(a1)
     ac4:	00e51023          	sh	a4,0(a0)
     ac8:	00f51123          	sh	a5,2(a0)
     acc:	00008067          	ret

00000ad0 <core_list_insert_new>:
     ad0:	00062803          	lw	a6,0(a2)
     ad4:	00880893          	addi	a7,a6,8
     ad8:	04e8f663          	bgeu	a7,a4,b24 <core_list_insert_new+0x54>
     adc:	0006a703          	lw	a4,0(a3)
     ae0:	00470313          	addi	t1,a4,4
     ae4:	04f37063          	bgeu	t1,a5,b24 <core_list_insert_new+0x54>
     ae8:	01162023          	sw	a7,0(a2)
     aec:	00052783          	lw	a5,0(a0)
     af0:	00059283          	lh	t0,0(a1)
     af4:	00259603          	lh	a2,2(a1)
     af8:	00f82023          	sw	a5,0(a6)
     afc:	01052023          	sw	a6,0(a0)
     b00:	00e82223          	sw	a4,4(a6)
     b04:	0006a383          	lw	t2,0(a3)
     b08:	00438513          	addi	a0,t2,4
     b0c:	00a6a023          	sw	a0,0(a3)
     b10:	00482583          	lw	a1,4(a6)
     b14:	00080513          	mv	a0,a6
     b18:	00559023          	sh	t0,0(a1)
     b1c:	00c59123          	sh	a2,2(a1)
     b20:	00008067          	ret
     b24:	00000813          	li	a6,0
     b28:	00080513          	mv	a0,a6
     b2c:	00008067          	ret

00000b30 <core_list_remove>:
     b30:	00050793          	mv	a5,a0
     b34:	00052503          	lw	a0,0(a0)
     b38:	0047a683          	lw	a3,4(a5)
     b3c:	00452603          	lw	a2,4(a0)
     b40:	00052703          	lw	a4,0(a0)
     b44:	00c7a223          	sw	a2,4(a5)
     b48:	00d52223          	sw	a3,4(a0)
     b4c:	00e7a023          	sw	a4,0(a5)
     b50:	00052023          	sw	zero,0(a0)
     b54:	00008067          	ret

00000b58 <core_list_undo_remove>:
     b58:	0045a603          	lw	a2,4(a1)
     b5c:	00452683          	lw	a3,4(a0)
     b60:	0005a703          	lw	a4,0(a1)
     b64:	00c52223          	sw	a2,4(a0)
     b68:	00d5a223          	sw	a3,4(a1)
     b6c:	00e52023          	sw	a4,0(a0)
     b70:	00a5a023          	sw	a0,0(a1)
     b74:	00008067          	ret

00000b78 <core_list_find>:
     b78:	00259603          	lh	a2,2(a1)
     b7c:	02064263          	bltz	a2,ba0 <core_list_find+0x28>
     b80:	00051863          	bnez	a0,b90 <core_list_find+0x18>
     b84:	0480006f          	j	bcc <core_list_find+0x54>
     b88:	00052503          	lw	a0,0(a0)
     b8c:	02050c63          	beqz	a0,bc4 <core_list_find+0x4c>
     b90:	00452303          	lw	t1,4(a0)
     b94:	00231383          	lh	t2,2(t1)
     b98:	fec398e3          	bne	t2,a2,b88 <core_list_find+0x10>
     b9c:	00008067          	ret
     ba0:	02050263          	beqz	a0,bc4 <core_list_find+0x4c>
     ba4:	00059703          	lh	a4,0(a1)
     ba8:	00c0006f          	j	bb4 <core_list_find+0x3c>
     bac:	00052503          	lw	a0,0(a0)
     bb0:	00050c63          	beqz	a0,bc8 <core_list_find+0x50>
     bb4:	00452783          	lw	a5,4(a0)
     bb8:	0007c283          	lbu	t0,0(a5)
     bbc:	fee298e3          	bne	t0,a4,bac <core_list_find+0x34>
     bc0:	00008067          	ret
     bc4:	00000513          	li	a0,0
     bc8:	00008067          	ret
     bcc:	00008067          	ret

00000bd0 <core_list_reverse>:
     bd0:	02050063          	beqz	a0,bf0 <core_list_reverse+0x20>
     bd4:	00000713          	li	a4,0
     bd8:	0080006f          	j	be0 <core_list_reverse+0x10>
     bdc:	00078513          	mv	a0,a5
     be0:	00052783          	lw	a5,0(a0)
     be4:	00e52023          	sw	a4,0(a0)
     be8:	00050713          	mv	a4,a0
     bec:	fe0798e3          	bnez	a5,bdc <core_list_reverse+0xc>
     bf0:	00008067          	ret

00000bf4 <core_list_mergesort>:
     bf4:	fd010113          	addi	sp,sp,-48
     bf8:	02812423          	sw	s0,40(sp)
     bfc:	01612823          	sw	s6,16(sp)
     c00:	01712623          	sw	s7,12(sp)
     c04:	01912223          	sw	s9,4(sp)
     c08:	01a12023          	sw	s10,0(sp)
     c0c:	02112623          	sw	ra,44(sp)
     c10:	02912223          	sw	s1,36(sp)
     c14:	03212023          	sw	s2,32(sp)
     c18:	01312e23          	sw	s3,28(sp)
     c1c:	01412c23          	sw	s4,24(sp)
     c20:	01512a23          	sw	s5,20(sp)
     c24:	01812423          	sw	s8,8(sp)
     c28:	00050413          	mv	s0,a0
     c2c:	00058b13          	mv	s6,a1
     c30:	00060d13          	mv	s10,a2
     c34:	00100b93          	li	s7,1
     c38:	00100c93          	li	s9,1
     c3c:	1a040263          	beqz	s0,de0 <core_list_mergesort+0x1ec>
     c40:	00000c13          	li	s8,0
     c44:	00000493          	li	s1,0
     c48:	00000a93          	li	s5,0
     c4c:	007bf713          	andi	a4,s7,7
     c50:	001c0c13          	addi	s8,s8,1
     c54:	00040793          	mv	a5,s0
     c58:	00000913          	li	s2,0
     c5c:	08070663          	beqz	a4,ce8 <core_list_mergesort+0xf4>
     c60:	00100693          	li	a3,1
     c64:	06d70a63          	beq	a4,a3,cd8 <core_list_mergesort+0xe4>
     c68:	00200093          	li	ra,2
     c6c:	06170063          	beq	a4,ra,ccc <core_list_mergesort+0xd8>
     c70:	00300293          	li	t0,3
     c74:	04570663          	beq	a4,t0,cc0 <core_list_mergesort+0xcc>
     c78:	00400313          	li	t1,4
     c7c:	02670c63          	beq	a4,t1,cb4 <core_list_mergesort+0xc0>
     c80:	00500393          	li	t2,5
     c84:	02770263          	beq	a4,t2,ca8 <core_list_mergesort+0xb4>
     c88:	00600513          	li	a0,6
     c8c:	00a70863          	beq	a4,a0,c9c <core_list_mergesort+0xa8>
     c90:	00042783          	lw	a5,0(s0)
     c94:	00100913          	li	s2,1
     c98:	0a078a63          	beqz	a5,d4c <core_list_mergesort+0x158>
     c9c:	0007a783          	lw	a5,0(a5)
     ca0:	00190913          	addi	s2,s2,1
     ca4:	0a078463          	beqz	a5,d4c <core_list_mergesort+0x158>
     ca8:	0007a783          	lw	a5,0(a5)
     cac:	00190913          	addi	s2,s2,1
     cb0:	08078e63          	beqz	a5,d4c <core_list_mergesort+0x158>
     cb4:	0007a783          	lw	a5,0(a5)
     cb8:	00190913          	addi	s2,s2,1
     cbc:	08078863          	beqz	a5,d4c <core_list_mergesort+0x158>
     cc0:	0007a783          	lw	a5,0(a5)
     cc4:	00190913          	addi	s2,s2,1
     cc8:	08078263          	beqz	a5,d4c <core_list_mergesort+0x158>
     ccc:	0007a783          	lw	a5,0(a5)
     cd0:	00190913          	addi	s2,s2,1
     cd4:	06078c63          	beqz	a5,d4c <core_list_mergesort+0x158>
     cd8:	0007a783          	lw	a5,0(a5)
     cdc:	00190913          	addi	s2,s2,1
     ce0:	06078663          	beqz	a5,d4c <core_list_mergesort+0x158>
     ce4:	072b8463          	beq	s7,s2,d4c <core_list_mergesort+0x158>
     ce8:	0007a783          	lw	a5,0(a5)
     cec:	00190913          	addi	s2,s2,1
     cf0:	00090593          	mv	a1,s2
     cf4:	04078c63          	beqz	a5,d4c <core_list_mergesort+0x158>
     cf8:	0007a783          	lw	a5,0(a5)
     cfc:	00190913          	addi	s2,s2,1
     d00:	04078663          	beqz	a5,d4c <core_list_mergesort+0x158>
     d04:	0007a783          	lw	a5,0(a5)
     d08:	00258913          	addi	s2,a1,2
     d0c:	04078063          	beqz	a5,d4c <core_list_mergesort+0x158>
     d10:	0007a783          	lw	a5,0(a5)
     d14:	00358913          	addi	s2,a1,3
     d18:	02078a63          	beqz	a5,d4c <core_list_mergesort+0x158>
     d1c:	0007a783          	lw	a5,0(a5)
     d20:	00458913          	addi	s2,a1,4
     d24:	02078463          	beqz	a5,d4c <core_list_mergesort+0x158>
     d28:	0007a783          	lw	a5,0(a5)
     d2c:	00558913          	addi	s2,a1,5
     d30:	00078e63          	beqz	a5,d4c <core_list_mergesort+0x158>
     d34:	0007a783          	lw	a5,0(a5)
     d38:	00658913          	addi	s2,a1,6
     d3c:	00078863          	beqz	a5,d4c <core_list_mergesort+0x158>
     d40:	0007a783          	lw	a5,0(a5)
     d44:	00758913          	addi	s2,a1,7
     d48:	f8079ee3          	bnez	a5,ce4 <core_list_mergesort+0xf0>
     d4c:	00040a13          	mv	s4,s0
     d50:	000b8993          	mv	s3,s7
     d54:	00078413          	mv	s0,a5
     d58:	02090e63          	beqz	s2,d94 <core_list_mergesort+0x1a0>
     d5c:	04098e63          	beqz	s3,db8 <core_list_mergesort+0x1c4>
     d60:	04040c63          	beqz	s0,db8 <core_list_mergesort+0x1c4>
     d64:	00442583          	lw	a1,4(s0)
     d68:	004a2503          	lw	a0,4(s4)
     d6c:	000d0613          	mv	a2,s10
     d70:	000b00e7          	jalr	s6
     d74:	04a05263          	blez	a0,db8 <core_list_mergesort+0x1c4>
     d78:	00040613          	mv	a2,s0
     d7c:	00042403          	lw	s0,0(s0)
     d80:	fff98993          	addi	s3,s3,-1
     d84:	02048463          	beqz	s1,dac <core_list_mergesort+0x1b8>
     d88:	00c4a023          	sw	a2,0(s1)
     d8c:	00060493          	mv	s1,a2
     d90:	fc0916e3          	bnez	s2,d5c <core_list_mergesort+0x168>
     d94:	02098a63          	beqz	s3,dc8 <core_list_mergesort+0x1d4>
     d98:	02040a63          	beqz	s0,dcc <core_list_mergesort+0x1d8>
     d9c:	00040613          	mv	a2,s0
     da0:	fff98993          	addi	s3,s3,-1
     da4:	00042403          	lw	s0,0(s0)
     da8:	fe0490e3          	bnez	s1,d88 <core_list_mergesort+0x194>
     dac:	00060a93          	mv	s5,a2
     db0:	00060493          	mv	s1,a2
     db4:	fddff06f          	j	d90 <core_list_mergesort+0x19c>
     db8:	000a0613          	mv	a2,s4
     dbc:	fff90913          	addi	s2,s2,-1
     dc0:	000a2a03          	lw	s4,0(s4)
     dc4:	fc1ff06f          	j	d84 <core_list_mergesort+0x190>
     dc8:	e80412e3          	bnez	s0,c4c <core_list_mergesort+0x58>
     dcc:	0004a023          	sw	zero,0(s1)
     dd0:	019c0c63          	beq	s8,s9,de8 <core_list_mergesort+0x1f4>
     dd4:	001b9b93          	slli	s7,s7,0x1
     dd8:	000a8413          	mv	s0,s5
     ddc:	e61ff06f          	j	c3c <core_list_mergesort+0x48>
     de0:	00002023          	sw	zero,0(zero) # 0 <__DYNAMIC>
     de4:	00100073          	ebreak
     de8:	02c12083          	lw	ra,44(sp)
     dec:	02812403          	lw	s0,40(sp)
     df0:	02412483          	lw	s1,36(sp)
     df4:	02012903          	lw	s2,32(sp)
     df8:	01c12983          	lw	s3,28(sp)
     dfc:	01812a03          	lw	s4,24(sp)
     e00:	01012b03          	lw	s6,16(sp)
     e04:	00c12b83          	lw	s7,12(sp)
     e08:	00812c03          	lw	s8,8(sp)
     e0c:	00412c83          	lw	s9,4(sp)
     e10:	00012d03          	lw	s10,0(sp)
     e14:	000a8513          	mv	a0,s5
     e18:	01412a83          	lw	s5,20(sp)
     e1c:	03010113          	addi	sp,sp,48
     e20:	00008067          	ret

00000e24 <core_bench_list>:
     e24:	00050613          	mv	a2,a0
     e28:	00451503          	lh	a0,4(a0)
     e2c:	fe010113          	addi	sp,sp,-32
     e30:	00812c23          	sw	s0,24(sp)
     e34:	00112e23          	sw	ra,28(sp)
     e38:	00912a23          	sw	s1,20(sp)
     e3c:	01212823          	sw	s2,16(sp)
     e40:	01312623          	sw	s3,12(sp)
     e44:	01412423          	sw	s4,8(sp)
     e48:	01512223          	sw	s5,4(sp)
     e4c:	02462403          	lw	s0,36(a2)
     e50:	24a05663          	blez	a0,109c <_min_stack+0x9c>
     e54:	00058493          	mv	s1,a1
     e58:	00000893          	li	a7,0
     e5c:	00000e13          	li	t3,0
     e60:	00000e93          	li	t4,0
     e64:	00000813          	li	a6,0
     e68:	0ff8fa13          	zext.b	s4,a7
     e6c:	1e04c263          	bltz	s1,1050 <_min_stack+0x50>
     e70:	22040e63          	beqz	s0,10ac <_min_stack+0xac>
     e74:	00040793          	mv	a5,s0
     e78:	00c0006f          	j	e84 <core_bench_list+0x60>
     e7c:	0007a783          	lw	a5,0(a5)
     e80:	00078863          	beqz	a5,e90 <core_bench_list+0x6c>
     e84:	0047a283          	lw	t0,4(a5)
     e88:	00229383          	lh	t2,2(t0)
     e8c:	fe9398e3          	bne	t2,s1,e7c <core_bench_list+0x58>
     e90:	00000693          	li	a3,0
     e94:	00c0006f          	j	ea0 <core_bench_list+0x7c>
     e98:	00040693          	mv	a3,s0
     e9c:	00090413          	mv	s0,s2
     ea0:	00042903          	lw	s2,0(s0)
     ea4:	00d42023          	sw	a3,0(s0)
     ea8:	fe0918e3          	bnez	s2,e98 <core_bench_list+0x74>
     eac:	1c078463          	beqz	a5,1074 <_min_stack+0x74>
     eb0:	0047a983          	lw	s3,4(a5)
     eb4:	001e8313          	addi	t1,t4,1
     eb8:	01031a93          	slli	s5,t1,0x10
     ebc:	00099f03          	lh	t5,0(s3)
     ec0:	010ade93          	srli	t4,s5,0x10
     ec4:	001f7f93          	andi	t6,t5,1
     ec8:	000f8c63          	beqz	t6,ee0 <core_bench_list+0xbc>
     ecc:	409f5713          	srai	a4,t5,0x9
     ed0:	00177093          	andi	ra,a4,1
     ed4:	00180833          	add	a6,a6,ra
     ed8:	01081293          	slli	t0,a6,0x10
     edc:	0102d813          	srli	a6,t0,0x10
     ee0:	0007a383          	lw	t2,0(a5)
     ee4:	00038c63          	beqz	t2,efc <core_bench_list+0xd8>
     ee8:	0003a683          	lw	a3,0(t2)
     eec:	00d7a023          	sw	a3,0(a5)
     ef0:	00042783          	lw	a5,0(s0)
     ef4:	00f3a023          	sw	a5,0(t2)
     ef8:	00742023          	sw	t2,0(s0)
     efc:	0004c863          	bltz	s1,f0c <core_bench_list+0xe8>
     f00:	00148493          	addi	s1,s1,1
     f04:	01049713          	slli	a4,s1,0x10
     f08:	41075493          	srai	s1,a4,0x10
     f0c:	00188893          	addi	a7,a7,1
     f10:	01089093          	slli	ra,a7,0x10
     f14:	4100d893          	srai	a7,ra,0x10
     f18:	f51518e3          	bne	a0,a7,e68 <core_bench_list+0x44>
     f1c:	002e9513          	slli	a0,t4,0x2
     f20:	41c50eb3          	sub	t4,a0,t3
     f24:	01d802b3          	add	t0,a6,t4
     f28:	01029813          	slli	a6,t0,0x10
     f2c:	01085913          	srli	s2,a6,0x10
     f30:	00b05c63          	blez	a1,f48 <core_bench_list+0x124>
     f34:	000015b7          	lui	a1,0x1
     f38:	00040513          	mv	a0,s0
     f3c:	a7058593          	addi	a1,a1,-1424 # a70 <cmp_complex>
     f40:	cb5ff0ef          	jal	ra,bf4 <core_list_mergesort>
     f44:	00050413          	mv	s0,a0
     f48:	00042383          	lw	t2,0(s0)
     f4c:	00040993          	mv	s3,s0
     f50:	0003aa83          	lw	s5,0(t2)
     f54:	0043a303          	lw	t1,4(t2)
     f58:	004aa603          	lw	a2,4(s5)
     f5c:	000aa683          	lw	a3,0(s5)
     f60:	00c3a223          	sw	a2,4(t2)
     f64:	006aa223          	sw	t1,4(s5)
     f68:	00d3a023          	sw	a3,0(t2)
     f6c:	000aa023          	sw	zero,0(s5)
     f70:	0c04c063          	bltz	s1,1030 <_min_stack+0x30>
     f74:	0049aa03          	lw	s4,4(s3)
     f78:	002a1f03          	lh	t5,2(s4)
     f7c:	009f0a63          	beq	t5,s1,f90 <core_bench_list+0x16c>
     f80:	0009a983          	lw	s3,0(s3)
     f84:	fe0998e3          	bnez	s3,f74 <core_bench_list+0x150>
     f88:	00042983          	lw	s3,0(s0)
     f8c:	02098463          	beqz	s3,fb4 <SPECTRE_ARRAY_SIZE+0x14>
     f90:	00442f83          	lw	t6,4(s0)
     f94:	00090593          	mv	a1,s2
     f98:	000f9503          	lh	a0,0(t6)
     f9c:	5f9000ef          	jal	ra,1d94 <crc16>
     fa0:	0009a983          	lw	s3,0(s3)
     fa4:	00050913          	mv	s2,a0
     fa8:	fe0994e3          	bnez	s3,f90 <core_bench_list+0x16c>
     fac:	00042983          	lw	s3,0(s0)
     fb0:	004aa303          	lw	t1,4(s5)
     fb4:	0049a703          	lw	a4,4(s3)
     fb8:	0009a083          	lw	ra,0(s3)
     fbc:	000018b7          	lui	a7,0x1
     fc0:	00eaa223          	sw	a4,4(s5)
     fc4:	0069a223          	sw	t1,4(s3)
     fc8:	001aa023          	sw	ra,0(s5)
     fcc:	0159a023          	sw	s5,0(s3)
     fd0:	00040513          	mv	a0,s0
     fd4:	00000613          	li	a2,0
     fd8:	8e088593          	addi	a1,a7,-1824 # 8e0 <cmp_idx>
     fdc:	c19ff0ef          	jal	ra,bf4 <core_list_mergesort>
     fe0:	00052403          	lw	s0,0(a0)
     fe4:	00050a93          	mv	s5,a0
     fe8:	02040063          	beqz	s0,1008 <_min_stack+0x8>
     fec:	004aa503          	lw	a0,4(s5)
     ff0:	00090593          	mv	a1,s2
     ff4:	00051503          	lh	a0,0(a0)
     ff8:	59d000ef          	jal	ra,1d94 <crc16>
     ffc:	00042403          	lw	s0,0(s0)
    1000:	00050913          	mv	s2,a0
    1004:	fe0414e3          	bnez	s0,fec <SPECTRE_ARRAY_SIZE+0x4c>
    1008:	01c12083          	lw	ra,28(sp)
    100c:	01812403          	lw	s0,24(sp)
    1010:	01412483          	lw	s1,20(sp)
    1014:	00c12983          	lw	s3,12(sp)
    1018:	00812a03          	lw	s4,8(sp)
    101c:	00412a83          	lw	s5,4(sp)
    1020:	00090513          	mv	a0,s2
    1024:	01012903          	lw	s2,16(sp)
    1028:	02010113          	addi	sp,sp,32
    102c:	00008067          	ret
    1030:	0049a783          	lw	a5,4(s3)
    1034:	0007ce03          	lbu	t3,0(a5)
    1038:	f54e0ce3          	beq	t3,s4,f90 <core_bench_list+0x16c>
    103c:	0009a983          	lw	s3,0(s3)
    1040:	fe0998e3          	bnez	s3,1030 <_min_stack+0x30>
    1044:	00042983          	lw	s3,0(s0)
    1048:	f40994e3          	bnez	s3,f90 <core_bench_list+0x16c>
    104c:	f69ff06f          	j	fb4 <SPECTRE_ARRAY_SIZE+0x14>
    1050:	04040e63          	beqz	s0,10ac <_min_stack+0xac>
    1054:	00040793          	mv	a5,s0
    1058:	00c0006f          	j	1064 <_min_stack+0x64>
    105c:	0007a783          	lw	a5,0(a5)
    1060:	e20788e3          	beqz	a5,e90 <core_bench_list+0x6c>
    1064:	0047a703          	lw	a4,4(a5)
    1068:	00074083          	lbu	ra,0(a4)
    106c:	fe1a18e3          	bne	s4,ra,105c <_min_stack+0x5c>
    1070:	e21ff06f          	j	e90 <core_bench_list+0x6c>
    1074:	0046a903          	lw	s2,4(a3)
    1078:	001e0e13          	addi	t3,t3,1
    107c:	010e1993          	slli	s3,t3,0x10
    1080:	00190303          	lb	t1,1(s2)
    1084:	0109de13          	srli	t3,s3,0x10
    1088:	00137a93          	andi	s5,t1,1
    108c:	01580f33          	add	t5,a6,s5
    1090:	010f1f93          	slli	t6,t5,0x10
    1094:	010fd813          	srli	a6,t6,0x10
    1098:	e65ff06f          	j	efc <core_bench_list+0xd8>
    109c:	00000a13          	li	s4,0
    10a0:	00058493          	mv	s1,a1
    10a4:	00000913          	li	s2,0
    10a8:	e89ff06f          	j	f30 <core_bench_list+0x10c>
    10ac:	00002783          	lw	a5,0(zero) # 0 <__DYNAMIC>
    10b0:	00100073          	ebreak

000010b4 <core_list_init>:
    10b4:	01400793          	li	a5,20
    10b8:	02f55733          	divu	a4,a0,a5
    10bc:	0005a023          	sw	zero,0(a1)
    10c0:	00058513          	mv	a0,a1
    10c4:	01058793          	addi	a5,a1,16
    10c8:	00858813          	addi	a6,a1,8
    10cc:	ffff86b7          	lui	a3,0xffff8
    10d0:	08068313          	addi	t1,a3,128 # ffff8080 <__spectre_array_end+0xffef8080>
    10d4:	ffe70593          	addi	a1,a4,-2
    10d8:	00359893          	slli	a7,a1,0x3
    10dc:	011508b3          	add	a7,a0,a7
    10e0:	01152223          	sw	a7,4(a0)
    10e4:	00259e13          	slli	t3,a1,0x2
    10e8:	00089123          	sh	zero,2(a7)
    10ec:	00689023          	sh	t1,0(a7)
    10f0:	01c88e33          	add	t3,a7,t3
    10f4:	00488293          	addi	t0,a7,4
    10f8:	3517fa63          	bgeu	a5,a7,144c <core_list_init+0x398>
    10fc:	00888713          	addi	a4,a7,8
    1100:	35c77663          	bgeu	a4,t3,144c <core_list_init+0x398>
    1104:	00052423          	sw	zero,8(a0)
    1108:	01052023          	sw	a6,0(a0)
    110c:	00552623          	sw	t0,12(a0)
    1110:	fff6c393          	not	t2,a3
    1114:	fff00e93          	li	t4,-1
    1118:	01d89223          	sh	t4,4(a7)
    111c:	00789323          	sh	t2,6(a7)
    1120:	28058663          	beqz	a1,13ac <core_list_init+0x2f8>
    1124:	01061f13          	slli	t5,a2,0x10
    1128:	ffff8fb7          	lui	t6,0xffff8
    112c:	0035f313          	andi	t1,a1,3
    1130:	010f5f13          	srli	t5,t5,0x10
    1134:	00000693          	li	a3,0
    1138:	ffffce93          	not	t4,t6
    113c:	10030663          	beqz	t1,1248 <core_list_init+0x194>
    1140:	00100293          	li	t0,1
    1144:	0a530463          	beq	t1,t0,11ec <core_list_init+0x138>
    1148:	00200393          	li	t2,2
    114c:	04730463          	beq	t1,t2,1194 <core_list_init+0xe0>
    1150:	00878313          	addi	t1,a5,8
    1154:	03137e63          	bgeu	t1,a7,1190 <core_list_init+0xdc>
    1158:	00470f93          	addi	t6,a4,4
    115c:	03cffa63          	bgeu	t6,t3,1190 <core_list_init+0xdc>
    1160:	003f1693          	slli	a3,t5,0x3
    1164:	0107a023          	sw	a6,0(a5)
    1168:	0786f293          	andi	t0,a3,120
    116c:	00f52023          	sw	a5,0(a0)
    1170:	00829813          	slli	a6,t0,0x8
    1174:	00e7a223          	sw	a4,4(a5)
    1178:	005863b3          	or	t2,a6,t0
    117c:	00771023          	sh	t2,0(a4)
    1180:	01d71123          	sh	t4,2(a4)
    1184:	00078813          	mv	a6,a5
    1188:	000f8713          	mv	a4,t6
    118c:	00030793          	mv	a5,t1
    1190:	00100693          	li	a3,1
    1194:	00878293          	addi	t0,a5,8
    1198:	0512f863          	bgeu	t0,a7,11e8 <core_list_init+0x134>
    119c:	00470393          	addi	t2,a4,4
    11a0:	05c3f463          	bgeu	t2,t3,11e8 <core_list_init+0x134>
    11a4:	01069313          	slli	t1,a3,0x10
    11a8:	01035f93          	srli	t6,t1,0x10
    11ac:	01efc333          	xor	t1,t6,t5
    11b0:	00331313          	slli	t1,t1,0x3
    11b4:	07837313          	andi	t1,t1,120
    11b8:	007fff93          	andi	t6,t6,7
    11bc:	0107a023          	sw	a6,0(a5)
    11c0:	01f36833          	or	a6,t1,t6
    11c4:	00f52023          	sw	a5,0(a0)
    11c8:	00881313          	slli	t1,a6,0x8
    11cc:	00e7a223          	sw	a4,4(a5)
    11d0:	01036fb3          	or	t6,t1,a6
    11d4:	01f71023          	sh	t6,0(a4)
    11d8:	01d71123          	sh	t4,2(a4)
    11dc:	00078813          	mv	a6,a5
    11e0:	00038713          	mv	a4,t2
    11e4:	00028793          	mv	a5,t0
    11e8:	00168693          	addi	a3,a3,1
    11ec:	00878293          	addi	t0,a5,8
    11f0:	0512f863          	bgeu	t0,a7,1240 <core_list_init+0x18c>
    11f4:	00470393          	addi	t2,a4,4
    11f8:	05c3f463          	bgeu	t2,t3,1240 <core_list_init+0x18c>
    11fc:	01069313          	slli	t1,a3,0x10
    1200:	01035f93          	srli	t6,t1,0x10
    1204:	01efc333          	xor	t1,t6,t5
    1208:	00331313          	slli	t1,t1,0x3
    120c:	07837313          	andi	t1,t1,120
    1210:	007fff93          	andi	t6,t6,7
    1214:	0107a023          	sw	a6,0(a5)
    1218:	01f36833          	or	a6,t1,t6
    121c:	00f52023          	sw	a5,0(a0)
    1220:	00881313          	slli	t1,a6,0x8
    1224:	00e7a223          	sw	a4,4(a5)
    1228:	01036fb3          	or	t6,t1,a6
    122c:	01f71023          	sh	t6,0(a4)
    1230:	01d71123          	sh	t4,2(a4)
    1234:	00078813          	mv	a6,a5
    1238:	00038713          	mv	a4,t2
    123c:	00028793          	mv	a5,t0
    1240:	00168693          	addi	a3,a3,1
    1244:	16d58463          	beq	a1,a3,13ac <core_list_init+0x2f8>
    1248:	00878293          	addi	t0,a5,8
    124c:	0512f863          	bgeu	t0,a7,129c <core_list_init+0x1e8>
    1250:	00470393          	addi	t2,a4,4
    1254:	05c3f463          	bgeu	t2,t3,129c <core_list_init+0x1e8>
    1258:	01069313          	slli	t1,a3,0x10
    125c:	01035f93          	srli	t6,t1,0x10
    1260:	01efc333          	xor	t1,t6,t5
    1264:	00331313          	slli	t1,t1,0x3
    1268:	07837313          	andi	t1,t1,120
    126c:	007fff93          	andi	t6,t6,7
    1270:	0107a023          	sw	a6,0(a5)
    1274:	01f36833          	or	a6,t1,t6
    1278:	00f52023          	sw	a5,0(a0)
    127c:	00881313          	slli	t1,a6,0x8
    1280:	00e7a223          	sw	a4,4(a5)
    1284:	01036fb3          	or	t6,t1,a6
    1288:	01f71023          	sh	t6,0(a4)
    128c:	01d71123          	sh	t4,2(a4)
    1290:	00078813          	mv	a6,a5
    1294:	00038713          	mv	a4,t2
    1298:	00028793          	mv	a5,t0
    129c:	00878293          	addi	t0,a5,8
    12a0:	00168693          	addi	a3,a3,1
    12a4:	0512f863          	bgeu	t0,a7,12f4 <core_list_init+0x240>
    12a8:	00470393          	addi	t2,a4,4
    12ac:	05c3f463          	bgeu	t2,t3,12f4 <core_list_init+0x240>
    12b0:	01069313          	slli	t1,a3,0x10
    12b4:	01035f93          	srli	t6,t1,0x10
    12b8:	01efc333          	xor	t1,t6,t5
    12bc:	00331313          	slli	t1,t1,0x3
    12c0:	07837313          	andi	t1,t1,120
    12c4:	007fff93          	andi	t6,t6,7
    12c8:	0107a023          	sw	a6,0(a5)
    12cc:	01f36833          	or	a6,t1,t6
    12d0:	00f52023          	sw	a5,0(a0)
    12d4:	00881313          	slli	t1,a6,0x8
    12d8:	00e7a223          	sw	a4,4(a5)
    12dc:	01036fb3          	or	t6,t1,a6
    12e0:	01f71023          	sh	t6,0(a4)
    12e4:	01d71123          	sh	t4,2(a4)
    12e8:	00078813          	mv	a6,a5
    12ec:	00038713          	mv	a4,t2
    12f0:	00028793          	mv	a5,t0
    12f4:	00878293          	addi	t0,a5,8
    12f8:	00168313          	addi	t1,a3,1
    12fc:	0512f863          	bgeu	t0,a7,134c <core_list_init+0x298>
    1300:	00470393          	addi	t2,a4,4
    1304:	05c3f463          	bgeu	t2,t3,134c <core_list_init+0x298>
    1308:	01031f93          	slli	t6,t1,0x10
    130c:	010fdf93          	srli	t6,t6,0x10
    1310:	01efc333          	xor	t1,t6,t5
    1314:	00331313          	slli	t1,t1,0x3
    1318:	07837313          	andi	t1,t1,120
    131c:	007fff93          	andi	t6,t6,7
    1320:	0107a023          	sw	a6,0(a5)
    1324:	01f36833          	or	a6,t1,t6
    1328:	00f52023          	sw	a5,0(a0)
    132c:	00881313          	slli	t1,a6,0x8
    1330:	00e7a223          	sw	a4,4(a5)
    1334:	01036fb3          	or	t6,t1,a6
    1338:	01f71023          	sh	t6,0(a4)
    133c:	01d71123          	sh	t4,2(a4)
    1340:	00078813          	mv	a6,a5
    1344:	00038713          	mv	a4,t2
    1348:	00028793          	mv	a5,t0
    134c:	00878293          	addi	t0,a5,8
    1350:	00268313          	addi	t1,a3,2
    1354:	0512f863          	bgeu	t0,a7,13a4 <core_list_init+0x2f0>
    1358:	00470393          	addi	t2,a4,4
    135c:	05c3f463          	bgeu	t2,t3,13a4 <core_list_init+0x2f0>
    1360:	01031f93          	slli	t6,t1,0x10
    1364:	010fdf93          	srli	t6,t6,0x10
    1368:	01efc333          	xor	t1,t6,t5
    136c:	00331313          	slli	t1,t1,0x3
    1370:	07837313          	andi	t1,t1,120
    1374:	007fff93          	andi	t6,t6,7
    1378:	0107a023          	sw	a6,0(a5)
    137c:	01f36833          	or	a6,t1,t6
    1380:	00f52023          	sw	a5,0(a0)
    1384:	00881313          	slli	t1,a6,0x8
    1388:	00e7a223          	sw	a4,4(a5)
    138c:	01036fb3          	or	t6,t1,a6
    1390:	01f71023          	sh	t6,0(a4)
    1394:	01d71123          	sh	t4,2(a4)
    1398:	00078813          	mv	a6,a5
    139c:	00038713          	mv	a4,t2
    13a0:	00028793          	mv	a5,t0
    13a4:	00368693          	addi	a3,a3,3
    13a8:	ead590e3          	bne	a1,a3,1248 <core_list_init+0x194>
    13ac:	00082883          	lw	a7,0(a6)
    13b0:	08088663          	beqz	a7,143c <core_list_init+0x388>
    13b4:	00500e13          	li	t3,5
    13b8:	03c5de33          	divu	t3,a1,t3
    13bc:	000045b7          	lui	a1,0x4
    13c0:	20000713          	li	a4,512
    13c4:	00100693          	li	a3,1
    13c8:	fff58593          	addi	a1,a1,-1 # 3fff <matrix_test+0x53f>
    13cc:	0300006f          	j	13fc <core_list_init+0x348>
    13d0:	0008af03          	lw	t5,0(a7)
    13d4:	01069793          	slli	a5,a3,0x10
    13d8:	4107d813          	srai	a6,a5,0x10
    13dc:	10070713          	addi	a4,a4,256
    13e0:	010f9123          	sh	a6,2(t6) # ffff8002 <__spectre_array_end+0xffef8002>
    13e4:	00088813          	mv	a6,a7
    13e8:	01071893          	slli	a7,a4,0x10
    13ec:	00168693          	addi	a3,a3,1
    13f0:	0108d713          	srli	a4,a7,0x10
    13f4:	040f0463          	beqz	t5,143c <core_list_init+0x388>
    13f8:	000f0893          	mv	a7,t5
    13fc:	70077f13          	andi	t5,a4,1792
    1400:	00d64eb3          	xor	t4,a2,a3
    1404:	01df62b3          	or	t0,t5,t4
    1408:	00482f83          	lw	t6,4(a6)
    140c:	00b2f3b3          	and	t2,t0,a1
    1410:	fdc6e0e3          	bltu	a3,t3,13d0 <core_list_init+0x31c>
    1414:	0008af03          	lw	t5,0(a7)
    1418:	01039313          	slli	t1,t2,0x10
    141c:	41035813          	srai	a6,t1,0x10
    1420:	10070713          	addi	a4,a4,256
    1424:	010f9123          	sh	a6,2(t6)
    1428:	00088813          	mv	a6,a7
    142c:	01071893          	slli	a7,a4,0x10
    1430:	00168693          	addi	a3,a3,1
    1434:	0108d713          	srli	a4,a7,0x10
    1438:	fc0f10e3          	bnez	t5,13f8 <core_list_init+0x344>
    143c:	00001e37          	lui	t3,0x1
    1440:	00000613          	li	a2,0
    1444:	8e0e0593          	addi	a1,t3,-1824 # 8e0 <cmp_idx>
    1448:	facff06f          	j	bf4 <core_list_mergesort>
    144c:	00080793          	mv	a5,a6
    1450:	00028713          	mv	a4,t0
    1454:	00000813          	li	a6,0
    1458:	cc9ff06f          	j	1120 <core_list_init+0x6c>

0000145c <get_seed_32>:
    145c:	00500793          	li	a5,5
    1460:	04a7ec63          	bltu	a5,a0,14b8 <get_seed_32+0x5c>
    1464:	000102b7          	lui	t0,0x10
    1468:	00251513          	slli	a0,a0,0x2
    146c:	00028313          	mv	t1,t0
    1470:	006503b3          	add	t2,a0,t1
    1474:	0003a583          	lw	a1,0(t2)
    1478:	00058067          	jr	a1
    147c:	00011637          	lui	a2,0x11
    1480:	93c62503          	lw	a0,-1732(a2) # 1093c <seed5_volatile>
    1484:	00008067          	ret
    1488:	000118b7          	lui	a7,0x11
    148c:	9448a503          	lw	a0,-1724(a7) # 10944 <seed1_volatile>
    1490:	00008067          	ret
    1494:	00011837          	lui	a6,0x11
    1498:	94082503          	lw	a0,-1728(a6) # 10940 <seed2_volatile>
    149c:	00008067          	ret
    14a0:	00011737          	lui	a4,0x11
    14a4:	91872503          	lw	a0,-1768(a4) # 10918 <seed3_volatile>
    14a8:	00008067          	ret
    14ac:	000116b7          	lui	a3,0x11
    14b0:	9146a503          	lw	a0,-1772(a3) # 10914 <seed4_volatile>
    14b4:	00008067          	ret
    14b8:	00000513          	li	a0,0
    14bc:	00008067          	ret

000014c0 <crcu8>:
    14c0:	00b546b3          	xor	a3,a0,a1
    14c4:	0016f293          	andi	t0,a3,1
    14c8:	00155713          	srli	a4,a0,0x1
    14cc:	0015d613          	srli	a2,a1,0x1
    14d0:	00028c63          	beqz	t0,14e8 <crcu8+0x28>
    14d4:	ffffa337          	lui	t1,0xffffa
    14d8:	00130393          	addi	t2,t1,1 # ffffa001 <__spectre_array_end+0xffefa001>
    14dc:	007647b3          	xor	a5,a2,t2
    14e0:	01079593          	slli	a1,a5,0x10
    14e4:	0105d613          	srli	a2,a1,0x10
    14e8:	00c74833          	xor	a6,a4,a2
    14ec:	00187893          	andi	a7,a6,1
    14f0:	00255e13          	srli	t3,a0,0x2
    14f4:	00165293          	srli	t0,a2,0x1
    14f8:	00088c63          	beqz	a7,1510 <crcu8+0x50>
    14fc:	ffffaeb7          	lui	t4,0xffffa
    1500:	001e8f13          	addi	t5,t4,1 # ffffa001 <__spectre_array_end+0xffefa001>
    1504:	01e2cfb3          	xor	t6,t0,t5
    1508:	010f9693          	slli	a3,t6,0x10
    150c:	0106d293          	srli	t0,a3,0x10
    1510:	005e4733          	xor	a4,t3,t0
    1514:	00177313          	andi	t1,a4,1
    1518:	00355393          	srli	t2,a0,0x3
    151c:	0012d893          	srli	a7,t0,0x1
    1520:	00030c63          	beqz	t1,1538 <crcu8+0x78>
    1524:	ffffa5b7          	lui	a1,0xffffa
    1528:	00158613          	addi	a2,a1,1 # ffffa001 <__spectre_array_end+0xffefa001>
    152c:	00c8c7b3          	xor	a5,a7,a2
    1530:	01079813          	slli	a6,a5,0x10
    1534:	01085893          	srli	a7,a6,0x10
    1538:	0113ce33          	xor	t3,t2,a7
    153c:	001e7e93          	andi	t4,t3,1
    1540:	00455f13          	srli	t5,a0,0x4
    1544:	0018d313          	srli	t1,a7,0x1
    1548:	000e8c63          	beqz	t4,1560 <crcu8+0xa0>
    154c:	ffffafb7          	lui	t6,0xffffa
    1550:	001f8693          	addi	a3,t6,1 # ffffa001 <__spectre_array_end+0xffefa001>
    1554:	00d342b3          	xor	t0,t1,a3
    1558:	01029713          	slli	a4,t0,0x10
    155c:	01075313          	srli	t1,a4,0x10
    1560:	006f43b3          	xor	t2,t5,t1
    1564:	0013f593          	andi	a1,t2,1
    1568:	00555613          	srli	a2,a0,0x5
    156c:	00135e93          	srli	t4,t1,0x1
    1570:	00058c63          	beqz	a1,1588 <crcu8+0xc8>
    1574:	ffffa837          	lui	a6,0xffffa
    1578:	00180893          	addi	a7,a6,1 # ffffa001 <__spectre_array_end+0xffefa001>
    157c:	011ec7b3          	xor	a5,t4,a7
    1580:	01079e13          	slli	t3,a5,0x10
    1584:	010e5e93          	srli	t4,t3,0x10
    1588:	01d64f33          	xor	t5,a2,t4
    158c:	001f7f93          	andi	t6,t5,1
    1590:	00655693          	srli	a3,a0,0x6
    1594:	001ed593          	srli	a1,t4,0x1
    1598:	000f8c63          	beqz	t6,15b0 <crcu8+0xf0>
    159c:	ffffa2b7          	lui	t0,0xffffa
    15a0:	00128713          	addi	a4,t0,1 # ffffa001 <__spectre_array_end+0xffefa001>
    15a4:	00e5c333          	xor	t1,a1,a4
    15a8:	01031393          	slli	t2,t1,0x10
    15ac:	0103d593          	srli	a1,t2,0x10
    15b0:	00b6c633          	xor	a2,a3,a1
    15b4:	00167813          	andi	a6,a2,1
    15b8:	00755893          	srli	a7,a0,0x7
    15bc:	0015df13          	srli	t5,a1,0x1
    15c0:	00080c63          	beqz	a6,15d8 <crcu8+0x118>
    15c4:	ffffa537          	lui	a0,0xffffa
    15c8:	00150e13          	addi	t3,a0,1 # ffffa001 <__spectre_array_end+0xffefa001>
    15cc:	01cf47b3          	xor	a5,t5,t3
    15d0:	01079e93          	slli	t4,a5,0x10
    15d4:	010edf13          	srli	t5,t4,0x10
    15d8:	001f7f93          	andi	t6,t5,1
    15dc:	001f5513          	srli	a0,t5,0x1
    15e0:	011f8c63          	beq	t6,a7,15f8 <crcu8+0x138>
    15e4:	ffffa6b7          	lui	a3,0xffffa
    15e8:	00168293          	addi	t0,a3,1 # ffffa001 <__spectre_array_end+0xffefa001>
    15ec:	00554733          	xor	a4,a0,t0
    15f0:	01071313          	slli	t1,a4,0x10
    15f4:	01035513          	srli	a0,t1,0x10
    15f8:	00008067          	ret

000015fc <crcu16>:
    15fc:	0ff57713          	zext.b	a4,a0
    1600:	00b746b3          	xor	a3,a4,a1
    1604:	0016f293          	andi	t0,a3,1
    1608:	00050793          	mv	a5,a0
    160c:	00175613          	srli	a2,a4,0x1
    1610:	0015d813          	srli	a6,a1,0x1
    1614:	00028c63          	beqz	t0,162c <crcu16+0x30>
    1618:	ffffa337          	lui	t1,0xffffa
    161c:	00130393          	addi	t2,t1,1 # ffffa001 <__spectre_array_end+0xffefa001>
    1620:	00784533          	xor	a0,a6,t2
    1624:	01051593          	slli	a1,a0,0x10
    1628:	0105d813          	srli	a6,a1,0x10
    162c:	010648b3          	xor	a7,a2,a6
    1630:	0018fe13          	andi	t3,a7,1
    1634:	00275e93          	srli	t4,a4,0x2
    1638:	00185313          	srli	t1,a6,0x1
    163c:	000e0c63          	beqz	t3,1654 <crcu16+0x58>
    1640:	ffffaf37          	lui	t5,0xffffa
    1644:	001f0f93          	addi	t6,t5,1 # ffffa001 <__spectre_array_end+0xffefa001>
    1648:	01f346b3          	xor	a3,t1,t6
    164c:	01069293          	slli	t0,a3,0x10
    1650:	0102d313          	srli	t1,t0,0x10
    1654:	006ec633          	xor	a2,t4,t1
    1658:	00167393          	andi	t2,a2,1
    165c:	00375593          	srli	a1,a4,0x3
    1660:	00135e93          	srli	t4,t1,0x1
    1664:	00038c63          	beqz	t2,167c <crcu16+0x80>
    1668:	ffffa837          	lui	a6,0xffffa
    166c:	00180893          	addi	a7,a6,1 # ffffa001 <__spectre_array_end+0xffefa001>
    1670:	011ec533          	xor	a0,t4,a7
    1674:	01051e13          	slli	t3,a0,0x10
    1678:	010e5e93          	srli	t4,t3,0x10
    167c:	01d5cf33          	xor	t5,a1,t4
    1680:	001f7f93          	andi	t6,t5,1
    1684:	00475693          	srli	a3,a4,0x4
    1688:	001ed593          	srli	a1,t4,0x1
    168c:	000f8c63          	beqz	t6,16a4 <crcu16+0xa8>
    1690:	ffffa2b7          	lui	t0,0xffffa
    1694:	00128313          	addi	t1,t0,1 # ffffa001 <__spectre_array_end+0xffefa001>
    1698:	0065c633          	xor	a2,a1,t1
    169c:	01061393          	slli	t2,a2,0x10
    16a0:	0103d593          	srli	a1,t2,0x10
    16a4:	00b6c833          	xor	a6,a3,a1
    16a8:	00187893          	andi	a7,a6,1
    16ac:	00575e13          	srli	t3,a4,0x5
    16b0:	0015d293          	srli	t0,a1,0x1
    16b4:	00088c63          	beqz	a7,16cc <crcu16+0xd0>
    16b8:	ffffaeb7          	lui	t4,0xffffa
    16bc:	001e8f13          	addi	t5,t4,1 # ffffa001 <__spectre_array_end+0xffefa001>
    16c0:	01e2c533          	xor	a0,t0,t5
    16c4:	01051f93          	slli	t6,a0,0x10
    16c8:	010fd293          	srli	t0,t6,0x10
    16cc:	005e46b3          	xor	a3,t3,t0
    16d0:	0016f313          	andi	t1,a3,1
    16d4:	00675393          	srli	t2,a4,0x6
    16d8:	0012de13          	srli	t3,t0,0x1
    16dc:	00030c63          	beqz	t1,16f4 <crcu16+0xf8>
    16e0:	ffffa637          	lui	a2,0xffffa
    16e4:	00160593          	addi	a1,a2,1 # ffffa001 <__spectre_array_end+0xffefa001>
    16e8:	00be4833          	xor	a6,t3,a1
    16ec:	01081893          	slli	a7,a6,0x10
    16f0:	0108de13          	srli	t3,a7,0x10
    16f4:	01c3ceb3          	xor	t4,t2,t3
    16f8:	001eff13          	andi	t5,t4,1
    16fc:	00775713          	srli	a4,a4,0x7
    1700:	001e5313          	srli	t1,t3,0x1
    1704:	000f0c63          	beqz	t5,171c <crcu16+0x120>
    1708:	ffffafb7          	lui	t6,0xffffa
    170c:	001f8293          	addi	t0,t6,1 # ffffa001 <__spectre_array_end+0xffefa001>
    1710:	00534533          	xor	a0,t1,t0
    1714:	01051693          	slli	a3,a0,0x10
    1718:	0106d313          	srli	t1,a3,0x10
    171c:	00137393          	andi	t2,t1,1
    1720:	00135e13          	srli	t3,t1,0x1
    1724:	14e39263          	bne	t2,a4,1868 <crcu16+0x26c>
    1728:	0087de93          	srli	t4,a5,0x8
    172c:	01cecf33          	xor	t5,t4,t3
    1730:	001f7f93          	andi	t6,t5,1
    1734:	0097d713          	srli	a4,a5,0x9
    1738:	001e5313          	srli	t1,t3,0x1
    173c:	000f8c63          	beqz	t6,1754 <crcu16+0x158>
    1740:	ffffa7b7          	lui	a5,0xffffa
    1744:	00178293          	addi	t0,a5,1 # ffffa001 <__spectre_array_end+0xffefa001>
    1748:	00534533          	xor	a0,t1,t0
    174c:	01051693          	slli	a3,a0,0x10
    1750:	0106d313          	srli	t1,a3,0x10
    1754:	006743b3          	xor	t2,a4,t1
    1758:	0013f613          	andi	a2,t2,1
    175c:	002ed593          	srli	a1,t4,0x2
    1760:	00135f93          	srli	t6,t1,0x1
    1764:	00060c63          	beqz	a2,177c <crcu16+0x180>
    1768:	ffffa837          	lui	a6,0xffffa
    176c:	00180893          	addi	a7,a6,1 # ffffa001 <__spectre_array_end+0xffefa001>
    1770:	011fce33          	xor	t3,t6,a7
    1774:	010e1f13          	slli	t5,t3,0x10
    1778:	010f5f93          	srli	t6,t5,0x10
    177c:	01f5c733          	xor	a4,a1,t6
    1780:	00177293          	andi	t0,a4,1
    1784:	003ed793          	srli	a5,t4,0x3
    1788:	001fd613          	srli	a2,t6,0x1
    178c:	00028c63          	beqz	t0,17a4 <crcu16+0x1a8>
    1790:	ffffa6b7          	lui	a3,0xffffa
    1794:	00168313          	addi	t1,a3,1 # ffffa001 <__spectre_array_end+0xffefa001>
    1798:	00664533          	xor	a0,a2,t1
    179c:	01051393          	slli	t2,a0,0x10
    17a0:	0103d613          	srli	a2,t2,0x10
    17a4:	00c7c5b3          	xor	a1,a5,a2
    17a8:	0015f813          	andi	a6,a1,1
    17ac:	004ed893          	srli	a7,t4,0x4
    17b0:	00165293          	srli	t0,a2,0x1
    17b4:	00080c63          	beqz	a6,17cc <crcu16+0x1d0>
    17b8:	ffffae37          	lui	t3,0xffffa
    17bc:	001e0f13          	addi	t5,t3,1 # ffffa001 <__spectre_array_end+0xffefa001>
    17c0:	01e2cfb3          	xor	t6,t0,t5
    17c4:	010f9713          	slli	a4,t6,0x10
    17c8:	01075293          	srli	t0,a4,0x10
    17cc:	0058c7b3          	xor	a5,a7,t0
    17d0:	0017f693          	andi	a3,a5,1
    17d4:	005ed313          	srli	t1,t4,0x5
    17d8:	0012d813          	srli	a6,t0,0x1
    17dc:	00068c63          	beqz	a3,17f4 <crcu16+0x1f8>
    17e0:	ffffa3b7          	lui	t2,0xffffa
    17e4:	00138613          	addi	a2,t2,1 # ffffa001 <__spectre_array_end+0xffefa001>
    17e8:	00c84533          	xor	a0,a6,a2
    17ec:	01051593          	slli	a1,a0,0x10
    17f0:	0105d813          	srli	a6,a1,0x10
    17f4:	010348b3          	xor	a7,t1,a6
    17f8:	0018fe13          	andi	t3,a7,1
    17fc:	006edf13          	srli	t5,t4,0x6
    1800:	00185693          	srli	a3,a6,0x1
    1804:	000e0c63          	beqz	t3,181c <crcu16+0x220>
    1808:	ffffafb7          	lui	t6,0xffffa
    180c:	001f8713          	addi	a4,t6,1 # ffffa001 <__spectre_array_end+0xffefa001>
    1810:	00e6c2b3          	xor	t0,a3,a4
    1814:	01029793          	slli	a5,t0,0x10
    1818:	0107d693          	srli	a3,a5,0x10
    181c:	00df4333          	xor	t1,t5,a3
    1820:	00137393          	andi	t2,t1,1
    1824:	007ede93          	srli	t4,t4,0x7
    1828:	0016d893          	srli	a7,a3,0x1
    182c:	00038c63          	beqz	t2,1844 <crcu16+0x248>
    1830:	ffffa637          	lui	a2,0xffffa
    1834:	00160593          	addi	a1,a2,1 # ffffa001 <__spectre_array_end+0xffefa001>
    1838:	00b8c533          	xor	a0,a7,a1
    183c:	01051813          	slli	a6,a0,0x10
    1840:	01085893          	srli	a7,a6,0x10
    1844:	0018fe13          	andi	t3,a7,1
    1848:	0018d513          	srli	a0,a7,0x1
    184c:	01de0c63          	beq	t3,t4,1864 <crcu16+0x268>
    1850:	ffffaf37          	lui	t5,0xffffa
    1854:	001f0f93          	addi	t6,t5,1 # ffffa001 <__spectre_array_end+0xffefa001>
    1858:	01f54733          	xor	a4,a0,t6
    185c:	01071293          	slli	t0,a4,0x10
    1860:	0102d513          	srli	a0,t0,0x10
    1864:	00008067          	ret
    1868:	ffffa637          	lui	a2,0xffffa
    186c:	00160593          	addi	a1,a2,1 # ffffa001 <__spectre_array_end+0xffefa001>
    1870:	00be4833          	xor	a6,t3,a1
    1874:	01081893          	slli	a7,a6,0x10
    1878:	0108de13          	srli	t3,a7,0x10
    187c:	eadff06f          	j	1728 <crcu16+0x12c>

00001880 <crcu32>:
    1880:	0ff57713          	zext.b	a4,a0
    1884:	00b74833          	xor	a6,a4,a1
    1888:	01051693          	slli	a3,a0,0x10
    188c:	00187293          	andi	t0,a6,1
    1890:	00050793          	mv	a5,a0
    1894:	0106d313          	srli	t1,a3,0x10
    1898:	00175613          	srli	a2,a4,0x1
    189c:	0015de13          	srli	t3,a1,0x1
    18a0:	00028c63          	beqz	t0,18b8 <crcu32+0x38>
    18a4:	ffffa5b7          	lui	a1,0xffffa
    18a8:	00158393          	addi	t2,a1,1 # ffffa001 <__spectre_array_end+0xffefa001>
    18ac:	007e4533          	xor	a0,t3,t2
    18b0:	01051893          	slli	a7,a0,0x10
    18b4:	0108de13          	srli	t3,a7,0x10
    18b8:	01c64eb3          	xor	t4,a2,t3
    18bc:	001eff13          	andi	t5,t4,1
    18c0:	00275f93          	srli	t6,a4,0x2
    18c4:	001e5393          	srli	t2,t3,0x1
    18c8:	000f0c63          	beqz	t5,18e0 <crcu32+0x60>
    18cc:	ffffa837          	lui	a6,0xffffa
    18d0:	00180293          	addi	t0,a6,1 # ffffa001 <__spectre_array_end+0xffefa001>
    18d4:	0053c6b3          	xor	a3,t2,t0
    18d8:	01069613          	slli	a2,a3,0x10
    18dc:	01065393          	srli	t2,a2,0x10
    18e0:	007fc5b3          	xor	a1,t6,t2
    18e4:	0015f893          	andi	a7,a1,1
    18e8:	00375e13          	srli	t3,a4,0x3
    18ec:	0013d813          	srli	a6,t2,0x1
    18f0:	00088c63          	beqz	a7,1908 <crcu32+0x88>
    18f4:	ffffaeb7          	lui	t4,0xffffa
    18f8:	001e8f13          	addi	t5,t4,1 # ffffa001 <__spectre_array_end+0xffefa001>
    18fc:	01e84533          	xor	a0,a6,t5
    1900:	01051f93          	slli	t6,a0,0x10
    1904:	010fd813          	srli	a6,t6,0x10
    1908:	010e42b3          	xor	t0,t3,a6
    190c:	0012f693          	andi	a3,t0,1
    1910:	00475613          	srli	a2,a4,0x4
    1914:	00185e93          	srli	t4,a6,0x1
    1918:	00068c63          	beqz	a3,1930 <crcu32+0xb0>
    191c:	ffffa3b7          	lui	t2,0xffffa
    1920:	00138593          	addi	a1,t2,1 # ffffa001 <__spectre_array_end+0xffefa001>
    1924:	00bec8b3          	xor	a7,t4,a1
    1928:	01089e13          	slli	t3,a7,0x10
    192c:	010e5e93          	srli	t4,t3,0x10
    1930:	01d64f33          	xor	t5,a2,t4
    1934:	001f7f93          	andi	t6,t5,1
    1938:	00575813          	srli	a6,a4,0x5
    193c:	001ed393          	srli	t2,t4,0x1
    1940:	000f8c63          	beqz	t6,1958 <crcu32+0xd8>
    1944:	ffffa2b7          	lui	t0,0xffffa
    1948:	00128693          	addi	a3,t0,1 # ffffa001 <__spectre_array_end+0xffefa001>
    194c:	00d3c533          	xor	a0,t2,a3
    1950:	01051613          	slli	a2,a0,0x10
    1954:	01065393          	srli	t2,a2,0x10
    1958:	007845b3          	xor	a1,a6,t2
    195c:	0015f893          	andi	a7,a1,1
    1960:	00675e13          	srli	t3,a4,0x6
    1964:	0013d293          	srli	t0,t2,0x1
    1968:	00088c63          	beqz	a7,1980 <crcu32+0x100>
    196c:	ffffaeb7          	lui	t4,0xffffa
    1970:	001e8f13          	addi	t5,t4,1 # ffffa001 <__spectre_array_end+0xffefa001>
    1974:	01e2cfb3          	xor	t6,t0,t5
    1978:	010f9813          	slli	a6,t6,0x10
    197c:	01085293          	srli	t0,a6,0x10
    1980:	005e46b3          	xor	a3,t3,t0
    1984:	0016f613          	andi	a2,a3,1
    1988:	00775713          	srli	a4,a4,0x7
    198c:	0012de13          	srli	t3,t0,0x1
    1990:	00060c63          	beqz	a2,19a8 <crcu32+0x128>
    1994:	ffffa3b7          	lui	t2,0xffffa
    1998:	00138593          	addi	a1,t2,1 # ffffa001 <__spectre_array_end+0xffefa001>
    199c:	00be4533          	xor	a0,t3,a1
    19a0:	01051893          	slli	a7,a0,0x10
    19a4:	0108de13          	srli	t3,a7,0x10
    19a8:	001e7e93          	andi	t4,t3,1
    19ac:	001e5393          	srli	t2,t3,0x1
    19b0:	3cee9663          	bne	t4,a4,1d7c <crcu32+0x4fc>
    19b4:	00835713          	srli	a4,t1,0x8
    19b8:	007746b3          	xor	a3,a4,t2
    19bc:	0016f613          	andi	a2,a3,1
    19c0:	00935313          	srli	t1,t1,0x9
    19c4:	0013de93          	srli	t4,t2,0x1
    19c8:	00060c63          	beqz	a2,19e0 <crcu32+0x160>
    19cc:	ffffa5b7          	lui	a1,0xffffa
    19d0:	00158893          	addi	a7,a1,1 # ffffa001 <__spectre_array_end+0xffefa001>
    19d4:	011ec533          	xor	a0,t4,a7
    19d8:	01051e13          	slli	t3,a0,0x10
    19dc:	010e5e93          	srli	t4,t3,0x10
    19e0:	01d34f33          	xor	t5,t1,t4
    19e4:	001f7f93          	andi	t6,t5,1
    19e8:	00275813          	srli	a6,a4,0x2
    19ec:	001ed313          	srli	t1,t4,0x1
    19f0:	000f8c63          	beqz	t6,1a08 <crcu32+0x188>
    19f4:	ffffa2b7          	lui	t0,0xffffa
    19f8:	00128393          	addi	t2,t0,1 # ffffa001 <__spectre_array_end+0xffefa001>
    19fc:	007346b3          	xor	a3,t1,t2
    1a00:	01069613          	slli	a2,a3,0x10
    1a04:	01065313          	srli	t1,a2,0x10
    1a08:	006845b3          	xor	a1,a6,t1
    1a0c:	0015f893          	andi	a7,a1,1
    1a10:	00375e13          	srli	t3,a4,0x3
    1a14:	00135813          	srli	a6,t1,0x1
    1a18:	00088c63          	beqz	a7,1a30 <crcu32+0x1b0>
    1a1c:	ffffaeb7          	lui	t4,0xffffa
    1a20:	001e8f13          	addi	t5,t4,1 # ffffa001 <__spectre_array_end+0xffefa001>
    1a24:	01e84533          	xor	a0,a6,t5
    1a28:	01051f93          	slli	t6,a0,0x10
    1a2c:	010fd813          	srli	a6,t6,0x10
    1a30:	010e42b3          	xor	t0,t3,a6
    1a34:	0012f393          	andi	t2,t0,1
    1a38:	00475693          	srli	a3,a4,0x4
    1a3c:	00185e13          	srli	t3,a6,0x1
    1a40:	00038c63          	beqz	t2,1a58 <crcu32+0x1d8>
    1a44:	ffffa637          	lui	a2,0xffffa
    1a48:	00160313          	addi	t1,a2,1 # ffffa001 <__spectre_array_end+0xffefa001>
    1a4c:	006e45b3          	xor	a1,t3,t1
    1a50:	01059893          	slli	a7,a1,0x10
    1a54:	0108de13          	srli	t3,a7,0x10
    1a58:	01c6ceb3          	xor	t4,a3,t3
    1a5c:	001eff13          	andi	t5,t4,1
    1a60:	00575f93          	srli	t6,a4,0x5
    1a64:	001e5313          	srli	t1,t3,0x1
    1a68:	000f0c63          	beqz	t5,1a80 <crcu32+0x200>
    1a6c:	ffffa837          	lui	a6,0xffffa
    1a70:	00180293          	addi	t0,a6,1 # ffffa001 <__spectre_array_end+0xffefa001>
    1a74:	00534533          	xor	a0,t1,t0
    1a78:	01051393          	slli	t2,a0,0x10
    1a7c:	0103d313          	srli	t1,t2,0x10
    1a80:	006fc6b3          	xor	a3,t6,t1
    1a84:	0016f613          	andi	a2,a3,1
    1a88:	00675593          	srli	a1,a4,0x6
    1a8c:	00135f93          	srli	t6,t1,0x1
    1a90:	00060c63          	beqz	a2,1aa8 <crcu32+0x228>
    1a94:	ffffa8b7          	lui	a7,0xffffa
    1a98:	00188e13          	addi	t3,a7,1 # ffffa001 <__spectre_array_end+0xffefa001>
    1a9c:	01cfceb3          	xor	t4,t6,t3
    1aa0:	010e9f13          	slli	t5,t4,0x10
    1aa4:	010f5f93          	srli	t6,t5,0x10
    1aa8:	01f5c833          	xor	a6,a1,t6
    1aac:	00187293          	andi	t0,a6,1
    1ab0:	00775713          	srli	a4,a4,0x7
    1ab4:	001fd613          	srli	a2,t6,0x1
    1ab8:	00028c63          	beqz	t0,1ad0 <crcu32+0x250>
    1abc:	ffffa3b7          	lui	t2,0xffffa
    1ac0:	00138313          	addi	t1,t2,1 # ffffa001 <__spectre_array_end+0xffefa001>
    1ac4:	00664533          	xor	a0,a2,t1
    1ac8:	01051693          	slli	a3,a0,0x10
    1acc:	0106d613          	srli	a2,a3,0x10
    1ad0:	00167593          	andi	a1,a2,1
    1ad4:	00165f93          	srli	t6,a2,0x1
    1ad8:	28e59663          	bne	a1,a4,1d64 <crcu32+0x4e4>
    1adc:	0107d813          	srli	a6,a5,0x10
    1ae0:	0ff87293          	zext.b	t0,a6
    1ae4:	01f2c733          	xor	a4,t0,t6
    1ae8:	00177393          	andi	t2,a4,1
    1aec:	0107d793          	srli	a5,a5,0x10
    1af0:	0012d313          	srli	t1,t0,0x1
    1af4:	001fd893          	srli	a7,t6,0x1
    1af8:	00038c63          	beqz	t2,1b10 <crcu32+0x290>
    1afc:	ffffa6b7          	lui	a3,0xffffa
    1b00:	00168613          	addi	a2,a3,1 # ffffa001 <__spectre_array_end+0xffefa001>
    1b04:	00c8c533          	xor	a0,a7,a2
    1b08:	01051593          	slli	a1,a0,0x10
    1b0c:	0105d893          	srli	a7,a1,0x10
    1b10:	01134e33          	xor	t3,t1,a7
    1b14:	001e7e93          	andi	t4,t3,1
    1b18:	0022df13          	srli	t5,t0,0x2
    1b1c:	0018d313          	srli	t1,a7,0x1
    1b20:	000e8c63          	beqz	t4,1b38 <crcu32+0x2b8>
    1b24:	ffffafb7          	lui	t6,0xffffa
    1b28:	001f8813          	addi	a6,t6,1 # ffffa001 <__spectre_array_end+0xffefa001>
    1b2c:	01034733          	xor	a4,t1,a6
    1b30:	01071393          	slli	t2,a4,0x10
    1b34:	0103d313          	srli	t1,t2,0x10
    1b38:	006f46b3          	xor	a3,t5,t1
    1b3c:	0016f593          	andi	a1,a3,1
    1b40:	0032d613          	srli	a2,t0,0x3
    1b44:	00135f13          	srli	t5,t1,0x1
    1b48:	00058c63          	beqz	a1,1b60 <crcu32+0x2e0>
    1b4c:	ffffa8b7          	lui	a7,0xffffa
    1b50:	00188e13          	addi	t3,a7,1 # ffffa001 <__spectre_array_end+0xffefa001>
    1b54:	01cf4533          	xor	a0,t5,t3
    1b58:	01051e93          	slli	t4,a0,0x10
    1b5c:	010edf13          	srli	t5,t4,0x10
    1b60:	01e64fb3          	xor	t6,a2,t5
    1b64:	001ff813          	andi	a6,t6,1
    1b68:	0042d713          	srli	a4,t0,0x4
    1b6c:	001f5893          	srli	a7,t5,0x1
    1b70:	00080c63          	beqz	a6,1b88 <crcu32+0x308>
    1b74:	ffffa3b7          	lui	t2,0xffffa
    1b78:	00138313          	addi	t1,t2,1 # ffffa001 <__spectre_array_end+0xffefa001>
    1b7c:	0068c6b3          	xor	a3,a7,t1
    1b80:	01069593          	slli	a1,a3,0x10
    1b84:	0105d893          	srli	a7,a1,0x10
    1b88:	01174633          	xor	a2,a4,a7
    1b8c:	00167e13          	andi	t3,a2,1
    1b90:	0052de93          	srli	t4,t0,0x5
    1b94:	0018d713          	srli	a4,a7,0x1
    1b98:	000e0c63          	beqz	t3,1bb0 <crcu32+0x330>
    1b9c:	ffffaf37          	lui	t5,0xffffa
    1ba0:	001f0f93          	addi	t6,t5,1 # ffffa001 <__spectre_array_end+0xffefa001>
    1ba4:	01f74533          	xor	a0,a4,t6
    1ba8:	01051813          	slli	a6,a0,0x10
    1bac:	01085713          	srli	a4,a6,0x10
    1bb0:	00eec3b3          	xor	t2,t4,a4
    1bb4:	0013f313          	andi	t1,t2,1
    1bb8:	0062d693          	srli	a3,t0,0x6
    1bbc:	00175e93          	srli	t4,a4,0x1
    1bc0:	00030c63          	beqz	t1,1bd8 <crcu32+0x358>
    1bc4:	ffffa5b7          	lui	a1,0xffffa
    1bc8:	00158893          	addi	a7,a1,1 # ffffa001 <__spectre_array_end+0xffefa001>
    1bcc:	011ec633          	xor	a2,t4,a7
    1bd0:	01061e13          	slli	t3,a2,0x10
    1bd4:	010e5e93          	srli	t4,t3,0x10
    1bd8:	01d6cf33          	xor	t5,a3,t4
    1bdc:	001f7f93          	andi	t6,t5,1
    1be0:	0072d293          	srli	t0,t0,0x7
    1be4:	001ed313          	srli	t1,t4,0x1
    1be8:	000f8c63          	beqz	t6,1c00 <crcu32+0x380>
    1bec:	ffffa837          	lui	a6,0xffffa
    1bf0:	00180713          	addi	a4,a6,1 # ffffa001 <__spectre_array_end+0xffefa001>
    1bf4:	00e34533          	xor	a0,t1,a4
    1bf8:	01051393          	slli	t2,a0,0x10
    1bfc:	0103d313          	srli	t1,t2,0x10
    1c00:	00137693          	andi	a3,t1,1
    1c04:	00135e93          	srli	t4,t1,0x1
    1c08:	14569263          	bne	a3,t0,1d4c <crcu32+0x4cc>
    1c0c:	0087df13          	srli	t5,a5,0x8
    1c10:	01df4fb3          	xor	t6,t5,t4
    1c14:	001ff293          	andi	t0,t6,1
    1c18:	0097d793          	srli	a5,a5,0x9
    1c1c:	001ed313          	srli	t1,t4,0x1
    1c20:	00028c63          	beqz	t0,1c38 <crcu32+0x3b8>
    1c24:	ffffa837          	lui	a6,0xffffa
    1c28:	00180713          	addi	a4,a6,1 # ffffa001 <__spectre_array_end+0xffefa001>
    1c2c:	00e34533          	xor	a0,t1,a4
    1c30:	01051393          	slli	t2,a0,0x10
    1c34:	0103d313          	srli	t1,t2,0x10
    1c38:	0067c6b3          	xor	a3,a5,t1
    1c3c:	0016f593          	andi	a1,a3,1
    1c40:	002f5893          	srli	a7,t5,0x2
    1c44:	00135293          	srli	t0,t1,0x1
    1c48:	00058c63          	beqz	a1,1c60 <crcu32+0x3e0>
    1c4c:	ffffa637          	lui	a2,0xffffa
    1c50:	00160e13          	addi	t3,a2,1 # ffffa001 <__spectre_array_end+0xffefa001>
    1c54:	01c2ceb3          	xor	t4,t0,t3
    1c58:	010e9f93          	slli	t6,t4,0x10
    1c5c:	010fd293          	srli	t0,t6,0x10
    1c60:	0058c7b3          	xor	a5,a7,t0
    1c64:	0017f813          	andi	a6,a5,1
    1c68:	003f5713          	srli	a4,t5,0x3
    1c6c:	0012d593          	srli	a1,t0,0x1
    1c70:	00080c63          	beqz	a6,1c88 <crcu32+0x408>
    1c74:	ffffa3b7          	lui	t2,0xffffa
    1c78:	00138313          	addi	t1,t2,1 # ffffa001 <__spectre_array_end+0xffefa001>
    1c7c:	0065c533          	xor	a0,a1,t1
    1c80:	01051693          	slli	a3,a0,0x10
    1c84:	0106d593          	srli	a1,a3,0x10
    1c88:	00b748b3          	xor	a7,a4,a1
    1c8c:	0018f613          	andi	a2,a7,1
    1c90:	004f5e13          	srli	t3,t5,0x4
    1c94:	0015d813          	srli	a6,a1,0x1
    1c98:	00060c63          	beqz	a2,1cb0 <crcu32+0x430>
    1c9c:	ffffaeb7          	lui	t4,0xffffa
    1ca0:	001e8f93          	addi	t6,t4,1 # ffffa001 <__spectre_array_end+0xffefa001>
    1ca4:	01f842b3          	xor	t0,a6,t6
    1ca8:	01029793          	slli	a5,t0,0x10
    1cac:	0107d813          	srli	a6,a5,0x10
    1cb0:	010e4733          	xor	a4,t3,a6
    1cb4:	00177393          	andi	t2,a4,1
    1cb8:	005f5313          	srli	t1,t5,0x5
    1cbc:	00185613          	srli	a2,a6,0x1
    1cc0:	00038c63          	beqz	t2,1cd8 <crcu32+0x458>
    1cc4:	ffffa6b7          	lui	a3,0xffffa
    1cc8:	00168593          	addi	a1,a3,1 # ffffa001 <__spectre_array_end+0xffefa001>
    1ccc:	00b64533          	xor	a0,a2,a1
    1cd0:	01051893          	slli	a7,a0,0x10
    1cd4:	0108d613          	srli	a2,a7,0x10
    1cd8:	00c34e33          	xor	t3,t1,a2
    1cdc:	001e7e93          	andi	t4,t3,1
    1ce0:	006f5f93          	srli	t6,t5,0x6
    1ce4:	00165393          	srli	t2,a2,0x1
    1ce8:	000e8c63          	beqz	t4,1d00 <crcu32+0x480>
    1cec:	ffffa2b7          	lui	t0,0xffffa
    1cf0:	00128793          	addi	a5,t0,1 # ffffa001 <__spectre_array_end+0xffefa001>
    1cf4:	00f3c833          	xor	a6,t2,a5
    1cf8:	01081713          	slli	a4,a6,0x10
    1cfc:	01075393          	srli	t2,a4,0x10
    1d00:	007fc333          	xor	t1,t6,t2
    1d04:	00137693          	andi	a3,t1,1
    1d08:	007f5f13          	srli	t5,t5,0x7
    1d0c:	0013de13          	srli	t3,t2,0x1
    1d10:	00068c63          	beqz	a3,1d28 <crcu32+0x4a8>
    1d14:	ffffa5b7          	lui	a1,0xffffa
    1d18:	00158893          	addi	a7,a1,1 # ffffa001 <__spectre_array_end+0xffefa001>
    1d1c:	011e4533          	xor	a0,t3,a7
    1d20:	01051613          	slli	a2,a0,0x10
    1d24:	01065e13          	srli	t3,a2,0x10
    1d28:	001e7e93          	andi	t4,t3,1
    1d2c:	001e5513          	srli	a0,t3,0x1
    1d30:	01ee8c63          	beq	t4,t5,1d48 <crcu32+0x4c8>
    1d34:	ffffafb7          	lui	t6,0xffffa
    1d38:	001f8293          	addi	t0,t6,1 # ffffa001 <__spectre_array_end+0xffefa001>
    1d3c:	005547b3          	xor	a5,a0,t0
    1d40:	01079813          	slli	a6,a5,0x10
    1d44:	01085513          	srli	a0,a6,0x10
    1d48:	00008067          	ret
    1d4c:	ffffa5b7          	lui	a1,0xffffa
    1d50:	00158893          	addi	a7,a1,1 # ffffa001 <__spectre_array_end+0xffefa001>
    1d54:	011ec633          	xor	a2,t4,a7
    1d58:	01061e13          	slli	t3,a2,0x10
    1d5c:	010e5e93          	srli	t4,t3,0x10
    1d60:	eadff06f          	j	1c0c <crcu32+0x38c>
    1d64:	ffffa8b7          	lui	a7,0xffffa
    1d68:	00188e13          	addi	t3,a7,1 # ffffa001 <__spectre_array_end+0xffefa001>
    1d6c:	01cfceb3          	xor	t4,t6,t3
    1d70:	010e9f13          	slli	t5,t4,0x10
    1d74:	010f5f93          	srli	t6,t5,0x10
    1d78:	d65ff06f          	j	1adc <crcu32+0x25c>
    1d7c:	ffffaf37          	lui	t5,0xffffa
    1d80:	001f0f93          	addi	t6,t5,1 # ffffa001 <__spectre_array_end+0xffefa001>
    1d84:	01f3c833          	xor	a6,t2,t6
    1d88:	01081293          	slli	t0,a6,0x10
    1d8c:	0102d393          	srli	t2,t0,0x10
    1d90:	c25ff06f          	j	19b4 <crcu32+0x134>

00001d94 <crc16>:
    1d94:	0ff57713          	zext.b	a4,a0
    1d98:	00b746b3          	xor	a3,a4,a1
    1d9c:	01051793          	slli	a5,a0,0x10
    1da0:	0016f293          	andi	t0,a3,1
    1da4:	0107d313          	srli	t1,a5,0x10
    1da8:	00175613          	srli	a2,a4,0x1
    1dac:	0015d893          	srli	a7,a1,0x1
    1db0:	00028c63          	beqz	t0,1dc8 <crc16+0x34>
    1db4:	ffffa3b7          	lui	t2,0xffffa
    1db8:	00138593          	addi	a1,t2,1 # ffffa001 <__spectre_array_end+0xffefa001>
    1dbc:	00b8c533          	xor	a0,a7,a1
    1dc0:	01051813          	slli	a6,a0,0x10
    1dc4:	01085893          	srli	a7,a6,0x10
    1dc8:	01164e33          	xor	t3,a2,a7
    1dcc:	001e7e93          	andi	t4,t3,1
    1dd0:	00275f13          	srli	t5,a4,0x2
    1dd4:	0018d393          	srli	t2,a7,0x1
    1dd8:	000e8c63          	beqz	t4,1df0 <crc16+0x5c>
    1ddc:	ffffafb7          	lui	t6,0xffffa
    1de0:	001f8693          	addi	a3,t6,1 # ffffa001 <__spectre_array_end+0xffefa001>
    1de4:	00d3c2b3          	xor	t0,t2,a3
    1de8:	01029793          	slli	a5,t0,0x10
    1dec:	0107d393          	srli	t2,a5,0x10
    1df0:	007f4633          	xor	a2,t5,t2
    1df4:	00167593          	andi	a1,a2,1
    1df8:	00375813          	srli	a6,a4,0x3
    1dfc:	0013df13          	srli	t5,t2,0x1
    1e00:	00058c63          	beqz	a1,1e18 <crc16+0x84>
    1e04:	ffffa8b7          	lui	a7,0xffffa
    1e08:	00188e13          	addi	t3,a7,1 # ffffa001 <__spectre_array_end+0xffefa001>
    1e0c:	01cf4533          	xor	a0,t5,t3
    1e10:	01051e93          	slli	t4,a0,0x10
    1e14:	010edf13          	srli	t5,t4,0x10
    1e18:	01e84fb3          	xor	t6,a6,t5
    1e1c:	001ff293          	andi	t0,t6,1
    1e20:	00475693          	srli	a3,a4,0x4
    1e24:	001f5813          	srli	a6,t5,0x1
    1e28:	00028c63          	beqz	t0,1e40 <crc16+0xac>
    1e2c:	ffffa7b7          	lui	a5,0xffffa
    1e30:	00178393          	addi	t2,a5,1 # ffffa001 <__spectre_array_end+0xffefa001>
    1e34:	00784633          	xor	a2,a6,t2
    1e38:	01061593          	slli	a1,a2,0x10
    1e3c:	0105d813          	srli	a6,a1,0x10
    1e40:	0106c8b3          	xor	a7,a3,a6
    1e44:	0018fe13          	andi	t3,a7,1
    1e48:	00575e93          	srli	t4,a4,0x5
    1e4c:	00185793          	srli	a5,a6,0x1
    1e50:	000e0c63          	beqz	t3,1e68 <crc16+0xd4>
    1e54:	ffffaf37          	lui	t5,0xffffa
    1e58:	001f0f93          	addi	t6,t5,1 # ffffa001 <__spectre_array_end+0xffefa001>
    1e5c:	01f7c533          	xor	a0,a5,t6
    1e60:	01051293          	slli	t0,a0,0x10
    1e64:	0102d793          	srli	a5,t0,0x10
    1e68:	00fec6b3          	xor	a3,t4,a5
    1e6c:	0016f393          	andi	t2,a3,1
    1e70:	00675593          	srli	a1,a4,0x6
    1e74:	0017de93          	srli	t4,a5,0x1
    1e78:	00038c63          	beqz	t2,1e90 <crc16+0xfc>
    1e7c:	ffffa637          	lui	a2,0xffffa
    1e80:	00160813          	addi	a6,a2,1 # ffffa001 <__spectre_array_end+0xffefa001>
    1e84:	010ec8b3          	xor	a7,t4,a6
    1e88:	01089e13          	slli	t3,a7,0x10
    1e8c:	010e5e93          	srli	t4,t3,0x10
    1e90:	01d5cf33          	xor	t5,a1,t4
    1e94:	001f7f93          	andi	t6,t5,1
    1e98:	00775713          	srli	a4,a4,0x7
    1e9c:	001ed393          	srli	t2,t4,0x1
    1ea0:	000f8c63          	beqz	t6,1eb8 <crc16+0x124>
    1ea4:	ffffa2b7          	lui	t0,0xffffa
    1ea8:	00128793          	addi	a5,t0,1 # ffffa001 <__spectre_array_end+0xffefa001>
    1eac:	00f3c533          	xor	a0,t2,a5
    1eb0:	01051693          	slli	a3,a0,0x10
    1eb4:	0106d393          	srli	t2,a3,0x10
    1eb8:	0013f593          	andi	a1,t2,1
    1ebc:	0013de93          	srli	t4,t2,0x1
    1ec0:	14e59263          	bne	a1,a4,2004 <_stack_len+0x4>
    1ec4:	00835f13          	srli	t5,t1,0x8
    1ec8:	01df4fb3          	xor	t6,t5,t4
    1ecc:	001ff293          	andi	t0,t6,1
    1ed0:	00935313          	srli	t1,t1,0x9
    1ed4:	001ed393          	srli	t2,t4,0x1
    1ed8:	00028c63          	beqz	t0,1ef0 <crc16+0x15c>
    1edc:	ffffa737          	lui	a4,0xffffa
    1ee0:	00170793          	addi	a5,a4,1 # ffffa001 <__spectre_array_end+0xffefa001>
    1ee4:	00f3c533          	xor	a0,t2,a5
    1ee8:	01051693          	slli	a3,a0,0x10
    1eec:	0106d393          	srli	t2,a3,0x10
    1ef0:	007345b3          	xor	a1,t1,t2
    1ef4:	0015f613          	andi	a2,a1,1
    1ef8:	002f5813          	srli	a6,t5,0x2
    1efc:	0013d293          	srli	t0,t2,0x1
    1f00:	00060c63          	beqz	a2,1f18 <crc16+0x184>
    1f04:	ffffa8b7          	lui	a7,0xffffa
    1f08:	00188e13          	addi	t3,a7,1 # ffffa001 <__spectre_array_end+0xffefa001>
    1f0c:	01c2ceb3          	xor	t4,t0,t3
    1f10:	010e9f93          	slli	t6,t4,0x10
    1f14:	010fd293          	srli	t0,t6,0x10
    1f18:	00584333          	xor	t1,a6,t0
    1f1c:	00137713          	andi	a4,t1,1
    1f20:	003f5793          	srli	a5,t5,0x3
    1f24:	0012d613          	srli	a2,t0,0x1
    1f28:	00070c63          	beqz	a4,1f40 <crc16+0x1ac>
    1f2c:	ffffa6b7          	lui	a3,0xffffa
    1f30:	00168393          	addi	t2,a3,1 # ffffa001 <__spectre_array_end+0xffefa001>
    1f34:	00764533          	xor	a0,a2,t2
    1f38:	01051593          	slli	a1,a0,0x10
    1f3c:	0105d613          	srli	a2,a1,0x10
    1f40:	00c7c833          	xor	a6,a5,a2
    1f44:	00187893          	andi	a7,a6,1
    1f48:	004f5e13          	srli	t3,t5,0x4
    1f4c:	00165693          	srli	a3,a2,0x1
    1f50:	00088c63          	beqz	a7,1f68 <crc16+0x1d4>
    1f54:	ffffaeb7          	lui	t4,0xffffa
    1f58:	001e8f93          	addi	t6,t4,1 # ffffa001 <__spectre_array_end+0xffefa001>
    1f5c:	01f6c2b3          	xor	t0,a3,t6
    1f60:	01029313          	slli	t1,t0,0x10
    1f64:	01035693          	srli	a3,t1,0x10
    1f68:	00de4733          	xor	a4,t3,a3
    1f6c:	00177393          	andi	t2,a4,1
    1f70:	005f5793          	srli	a5,t5,0x5
    1f74:	0016d893          	srli	a7,a3,0x1
    1f78:	00038c63          	beqz	t2,1f90 <crc16+0x1fc>
    1f7c:	ffffa5b7          	lui	a1,0xffffa
    1f80:	00158613          	addi	a2,a1,1 # ffffa001 <__spectre_array_end+0xffefa001>
    1f84:	00c8c533          	xor	a0,a7,a2
    1f88:	01051813          	slli	a6,a0,0x10
    1f8c:	01085893          	srli	a7,a6,0x10
    1f90:	0117ce33          	xor	t3,a5,a7
    1f94:	001e7e93          	andi	t4,t3,1
    1f98:	006f5f93          	srli	t6,t5,0x6
    1f9c:	0018d393          	srli	t2,a7,0x1
    1fa0:	000e8c63          	beqz	t4,1fb8 <crc16+0x224>
    1fa4:	ffffa2b7          	lui	t0,0xffffa
    1fa8:	00128313          	addi	t1,t0,1 # ffffa001 <__spectre_array_end+0xffefa001>
    1fac:	0063c6b3          	xor	a3,t2,t1
    1fb0:	01069713          	slli	a4,a3,0x10
    1fb4:	01075393          	srli	t2,a4,0x10
    1fb8:	007fc7b3          	xor	a5,t6,t2
    1fbc:	0017f593          	andi	a1,a5,1
    1fc0:	007f5f13          	srli	t5,t5,0x7
    1fc4:	0013de13          	srli	t3,t2,0x1
    1fc8:	00058c63          	beqz	a1,1fe0 <crc16+0x24c>
    1fcc:	ffffa637          	lui	a2,0xffffa
    1fd0:	00160813          	addi	a6,a2,1 # ffffa001 <__spectre_array_end+0xffefa001>
    1fd4:	010e4533          	xor	a0,t3,a6
    1fd8:	01051893          	slli	a7,a0,0x10
    1fdc:	0108de13          	srli	t3,a7,0x10
    1fe0:	001e7e93          	andi	t4,t3,1
    1fe4:	001e5513          	srli	a0,t3,0x1
    1fe8:	01ee8c63          	beq	t4,t5,2000 <_stack_len>
    1fec:	ffffafb7          	lui	t6,0xffffa
    1ff0:	001f8293          	addi	t0,t6,1 # ffffa001 <__spectre_array_end+0xffefa001>
    1ff4:	00554333          	xor	t1,a0,t0
    1ff8:	01031693          	slli	a3,t1,0x10
    1ffc:	0106d513          	srli	a0,a3,0x10
    2000:	00008067          	ret
    2004:	ffffa637          	lui	a2,0xffffa
    2008:	00160813          	addi	a6,a2,1 # ffffa001 <__spectre_array_end+0xffefa001>
    200c:	010ec8b3          	xor	a7,t4,a6
    2010:	01089e13          	slli	t3,a7,0x10
    2014:	010e5e93          	srli	t4,t3,0x10
    2018:	eadff06f          	j	1ec4 <crc16+0x130>

0000201c <check_data_types>:
    201c:	00000513          	li	a0,0
    2020:	00008067          	ret

00002024 <core_init_state>:
    2024:	fff50313          	addi	t1,a0,-1
    2028:	00100793          	li	a5,1
    202c:	00060893          	mv	a7,a2
    2030:	1c67f663          	bgeu	a5,t1,21fc <core_init_state+0x1d8>
    2034:	00158593          	addi	a1,a1,1
    2038:	01059293          	slli	t0,a1,0x10
    203c:	0102d593          	srli	a1,t0,0x10
    2040:	00010637          	lui	a2,0x10
    2044:	0035d393          	srli	t2,a1,0x3
    2048:	00700e93          	li	t4,7
    204c:	0075f693          	andi	a3,a1,7
    2050:	00000713          	li	a4,0
    2054:	01860613          	addi	a2,a2,24 # 10018 <intpat>
    2058:	00800f93          	li	t6,8
    205c:	00400813          	li	a6,4
    2060:	00100e13          	li	t3,1
    2064:	02c00f13          	li	t5,44
    2068:	0033f793          	andi	a5,t2,3
    206c:	15d68863          	beq	a3,t4,21bc <core_init_state+0x198>
    2070:	16d86a63          	bltu	a6,a3,21e4 <core_init_state+0x1c0>
    2074:	ffd68393          	addi	t2,a3,-3
    2078:	01039293          	slli	t0,t2,0x10
    207c:	00279793          	slli	a5,a5,0x2
    2080:	0102d693          	srli	a3,t0,0x10
    2084:	00f603b3          	add	t2,a2,a5
    2088:	14de6663          	bltu	t3,a3,21d4 <core_init_state+0x1b0>
    208c:	0103a683          	lw	a3,16(t2)
    2090:	00900793          	li	a5,9
    2094:	00800393          	li	t2,8
    2098:	00f702b3          	add	t0,a4,a5
    209c:	1662fa63          	bgeu	t0,t1,2210 <core_init_state+0x1ec>
    20a0:	ff010113          	addi	sp,sp,-16
    20a4:	00812623          	sw	s0,12(sp)
    20a8:	0340006f          	j	20dc <core_init_state+0xb8>
    20ac:	0e886663          	bltu	a6,s0,2198 <core_init_state+0x174>
    20b0:	ffd40693          	addi	a3,s0,-3
    20b4:	01069793          	slli	a5,a3,0x10
    20b8:	00239413          	slli	s0,t2,0x2
    20bc:	0107d293          	srli	t0,a5,0x10
    20c0:	008603b3          	add	t2,a2,s0
    20c4:	0c5e6263          	bltu	t3,t0,2188 <core_init_state+0x164>
    20c8:	0103a683          	lw	a3,16(t2)
    20cc:	00900293          	li	t0,9
    20d0:	00800393          	li	t2,8
    20d4:	005702b3          	add	t0,a4,t0
    20d8:	0862fa63          	bgeu	t0,t1,216c <core_init_state+0x148>
    20dc:	0006c403          	lbu	s0,0(a3)
    20e0:	00e887b3          	add	a5,a7,a4
    20e4:	00878023          	sb	s0,0(a5)
    20e8:	0016c703          	lbu	a4,1(a3)
    20ec:	00e780a3          	sb	a4,1(a5)
    20f0:	0026c403          	lbu	s0,2(a3)
    20f4:	00878123          	sb	s0,2(a5)
    20f8:	0036c703          	lbu	a4,3(a3)
    20fc:	00e781a3          	sb	a4,3(a5)
    2100:	03038463          	beq	t2,a6,2128 <core_init_state+0x104>
    2104:	0046c403          	lbu	s0,4(a3)
    2108:	00878223          	sb	s0,4(a5)
    210c:	0056c703          	lbu	a4,5(a3)
    2110:	00e782a3          	sb	a4,5(a5)
    2114:	0066c403          	lbu	s0,6(a3)
    2118:	00878323          	sb	s0,6(a5)
    211c:	01f39663          	bne	t2,t6,2128 <core_init_state+0x104>
    2120:	0076c683          	lbu	a3,7(a3)
    2124:	00d783a3          	sb	a3,7(a5)
    2128:	00158593          	addi	a1,a1,1
    212c:	007783b3          	add	t2,a5,t2
    2130:	01059793          	slli	a5,a1,0x10
    2134:	0107d593          	srli	a1,a5,0x10
    2138:	01e38023          	sb	t5,0(t2)
    213c:	00028713          	mv	a4,t0
    2140:	0075f413          	andi	s0,a1,7
    2144:	0035d293          	srli	t0,a1,0x3
    2148:	0032f393          	andi	t2,t0,3
    214c:	f7d410e3          	bne	s0,t4,20ac <core_init_state+0x88>
    2150:	00239693          	slli	a3,t2,0x2
    2154:	00900293          	li	t0,9
    2158:	00d607b3          	add	a5,a2,a3
    215c:	005702b3          	add	t0,a4,t0
    2160:	0307a683          	lw	a3,48(a5)
    2164:	00800393          	li	t2,8
    2168:	f662eae3          	bltu	t0,t1,20dc <core_init_state+0xb8>
    216c:	04a77263          	bgeu	a4,a0,21b0 <core_init_state+0x18c>
    2170:	00c12403          	lw	s0,12(sp)
    2174:	40e50633          	sub	a2,a0,a4
    2178:	00000593          	li	a1,0
    217c:	00e88533          	add	a0,a7,a4
    2180:	01010113          	addi	sp,sp,16
    2184:	4c90406f          	j	6e4c <memset>
    2188:	0003a683          	lw	a3,0(t2)
    218c:	00500293          	li	t0,5
    2190:	00400393          	li	t2,4
    2194:	f41ff06f          	j	20d4 <core_init_state+0xb0>
    2198:	00239413          	slli	s0,t2,0x2
    219c:	008603b3          	add	t2,a2,s0
    21a0:	0203a683          	lw	a3,32(t2)
    21a4:	00900293          	li	t0,9
    21a8:	00800393          	li	t2,8
    21ac:	f29ff06f          	j	20d4 <core_init_state+0xb0>
    21b0:	00c12403          	lw	s0,12(sp)
    21b4:	01010113          	addi	sp,sp,16
    21b8:	00008067          	ret
    21bc:	00279293          	slli	t0,a5,0x2
    21c0:	005603b3          	add	t2,a2,t0
    21c4:	0303a683          	lw	a3,48(t2)
    21c8:	00900793          	li	a5,9
    21cc:	00800393          	li	t2,8
    21d0:	ec9ff06f          	j	2098 <core_init_state+0x74>
    21d4:	0003a683          	lw	a3,0(t2)
    21d8:	00500793          	li	a5,5
    21dc:	00400393          	li	t2,4
    21e0:	eb9ff06f          	j	2098 <core_init_state+0x74>
    21e4:	00279293          	slli	t0,a5,0x2
    21e8:	005606b3          	add	a3,a2,t0
    21ec:	0206a683          	lw	a3,32(a3)
    21f0:	00900793          	li	a5,9
    21f4:	00800393          	li	t2,8
    21f8:	ea1ff06f          	j	2098 <core_init_state+0x74>
    21fc:	00000713          	li	a4,0
    2200:	40e50633          	sub	a2,a0,a4
    2204:	00000593          	li	a1,0
    2208:	00e88533          	add	a0,a7,a4
    220c:	4410406f          	j	6e4c <memset>
    2210:	fea768e3          	bltu	a4,a0,2200 <core_init_state+0x1dc>
    2214:	00008067          	ret

00002218 <core_state_transition>:
    2218:	00052303          	lw	t1,0(a0)
    221c:	00050e13          	mv	t3,a0
    2220:	00000513          	li	a0,0
    2224:	00034803          	lbu	a6,0(t1)
    2228:	00030713          	mv	a4,t1
    222c:	12080063          	beqz	a6,234c <core_state_transition+0x134>
    2230:	00130693          	addi	a3,t1,1
    2234:	02c00513          	li	a0,44
    2238:	00068713          	mv	a4,a3
    223c:	2aa80463          	beq	a6,a0,24e4 <core_state_transition+0x2cc>
    2240:	0005a603          	lw	a2,0(a1)
    2244:	fd080793          	addi	a5,a6,-48
    2248:	0ff7f293          	zext.b	t0,a5
    224c:	00900893          	li	a7,9
    2250:	00160393          	addi	t2,a2,1
    2254:	1058e063          	bltu	a7,t0,2354 <core_state_transition+0x13c>
    2258:	0075a023          	sw	t2,0(a1)
    225c:	00134783          	lbu	a5,1(t1)
    2260:	28078a63          	beqz	a5,24f4 <core_state_transition+0x2dc>
    2264:	28a78c63          	beq	a5,a0,24fc <core_state_transition+0x2e4>
    2268:	fd078e93          	addi	t4,a5,-48
    226c:	02e00513          	li	a0,46
    2270:	00900613          	li	a2,9
    2274:	02c00293          	li	t0,44
    2278:	0ffeff13          	zext.b	t5,t4
    227c:	00170f93          	addi	t6,a4,1
    2280:	02a78463          	beq	a5,a0,22a8 <core_state_transition+0x90>
    2284:	11e66263          	bltu	a2,t5,2388 <core_state_transition+0x170>
    2288:	000fc783          	lbu	a5,0(t6)
    228c:	26078263          	beqz	a5,24f0 <core_state_transition+0x2d8>
    2290:	2c578863          	beq	a5,t0,2560 <core_state_transition+0x348>
    2294:	000f8713          	mv	a4,t6
    2298:	fd078e93          	addi	t4,a5,-48
    229c:	0ffeff13          	zext.b	t5,t4
    22a0:	00170f93          	addi	t6,a4,1
    22a4:	fea790e3          	bne	a5,a0,2284 <core_state_transition+0x6c>
    22a8:	0105a883          	lw	a7,16(a1)
    22ac:	00188313          	addi	t1,a7,1
    22b0:	0065a823          	sw	t1,16(a1)
    22b4:	00174283          	lbu	t0,1(a4)
    22b8:	28028e63          	beqz	t0,2554 <core_state_transition+0x33c>
    22bc:	02c00393          	li	t2,44
    22c0:	2a728863          	beq	t0,t2,2570 <core_state_transition+0x358>
    22c4:	fd028713          	addi	a4,t0,-48
    22c8:	04500e93          	li	t4,69
    22cc:	0df2f793          	andi	a5,t0,223
    22d0:	0ff77693          	zext.b	a3,a4
    22d4:	00900f13          	li	t5,9
    22d8:	02c00813          	li	a6,44
    22dc:	001f8713          	addi	a4,t6,1
    22e0:	03d78663          	beq	a5,t4,230c <core_state_transition+0xf4>
    22e4:	14df6c63          	bltu	t5,a3,243c <core_state_transition+0x224>
    22e8:	00074283          	lbu	t0,0(a4)
    22ec:	22028863          	beqz	t0,251c <core_state_transition+0x304>
    22f0:	29028863          	beq	t0,a6,2580 <core_state_transition+0x368>
    22f4:	00070f93          	mv	t6,a4
    22f8:	0df2f793          	andi	a5,t0,223
    22fc:	fd028713          	addi	a4,t0,-48
    2300:	0ff77693          	zext.b	a3,a4
    2304:	001f8713          	addi	a4,t6,1
    2308:	fdd79ee3          	bne	a5,t4,22e4 <core_state_transition+0xcc>
    230c:	0145a503          	lw	a0,20(a1)
    2310:	00150893          	addi	a7,a0,1
    2314:	0115aa23          	sw	a7,20(a1)
    2318:	001fc303          	lbu	t1,1(t6)
    231c:	00300513          	li	a0,3
    2320:	02030663          	beqz	t1,234c <core_state_transition+0x134>
    2324:	02c00393          	li	t2,44
    2328:	1e730e63          	beq	t1,t2,2524 <core_state_transition+0x30c>
    232c:	00c5ae83          	lw	t4,12(a1)
    2330:	fd530f13          	addi	t5,t1,-43
    2334:	0fdf7813          	andi	a6,t5,253
    2338:	001e8793          	addi	a5,t4,1
    233c:	002f8713          	addi	a4,t6,2
    2340:	06080263          	beqz	a6,23a4 <core_state_transition+0x18c>
    2344:	00f5a623          	sw	a5,12(a1)
    2348:	00100513          	li	a0,1
    234c:	00ee2023          	sw	a4,0(t3)
    2350:	00008067          	ret
    2354:	02d00e93          	li	t4,45
    2358:	11d80863          	beq	a6,t4,2468 <core_state_transition+0x250>
    235c:	02e00f13          	li	t5,46
    2360:	0fe80863          	beq	a6,t5,2450 <core_state_transition+0x238>
    2364:	02b00f93          	li	t6,43
    2368:	11f80063          	beq	a6,t6,2468 <core_state_transition+0x250>
    236c:	0045a303          	lw	t1,4(a1)
    2370:	0075a023          	sw	t2,0(a1)
    2374:	00100513          	li	a0,1
    2378:	00130393          	addi	t2,t1,1
    237c:	0075a223          	sw	t2,4(a1)
    2380:	00ee2023          	sw	a4,0(t3)
    2384:	00008067          	ret
    2388:	0105a803          	lw	a6,16(a1)
    238c:	000f8713          	mv	a4,t6
    2390:	00100513          	li	a0,1
    2394:	00180693          	addi	a3,a6,1
    2398:	00d5a823          	sw	a3,16(a1)
    239c:	00ee2023          	sw	a4,0(t3)
    23a0:	00008067          	ret
    23a4:	00f5a623          	sw	a5,12(a1)
    23a8:	002fc683          	lbu	a3,2(t6)
    23ac:	16068463          	beqz	a3,2514 <core_state_transition+0x2fc>
    23b0:	18768263          	beq	a3,t2,2534 <core_state_transition+0x31c>
    23b4:	0185a703          	lw	a4,24(a1)
    23b8:	fd068613          	addi	a2,a3,-48
    23bc:	0ff67293          	zext.b	t0,a2
    23c0:	00900513          	li	a0,9
    23c4:	00170893          	addi	a7,a4,1
    23c8:	003f8713          	addi	a4,t6,3
    23cc:	04556663          	bltu	a0,t0,2418 <core_state_transition+0x200>
    23d0:	0115ac23          	sw	a7,24(a1)
    23d4:	003fc783          	lbu	a5,3(t6)
    23d8:	12078a63          	beqz	a5,250c <core_state_transition+0x2f4>
    23dc:	16778463          	beq	a5,t2,2544 <core_state_transition+0x32c>
    23e0:	00900f93          	li	t6,9
    23e4:	02c00313          	li	t1,44
    23e8:	fd078393          	addi	t2,a5,-48
    23ec:	0ff3fe93          	zext.b	t4,t2
    23f0:	00170713          	addi	a4,a4,1
    23f4:	03dfea63          	bltu	t6,t4,2428 <core_state_transition+0x210>
    23f8:	00074783          	lbu	a5,0(a4)
    23fc:	10078863          	beqz	a5,250c <core_state_transition+0x2f4>
    2400:	fe6794e3          	bne	a5,t1,23e8 <core_state_transition+0x1d0>
    2404:	00170693          	addi	a3,a4,1
    2408:	00700513          	li	a0,7
    240c:	00068713          	mv	a4,a3
    2410:	00ee2023          	sw	a4,0(t3)
    2414:	00008067          	ret
    2418:	0115ac23          	sw	a7,24(a1)
    241c:	00100513          	li	a0,1
    2420:	00ee2023          	sw	a4,0(t3)
    2424:	00008067          	ret
    2428:	0045af03          	lw	t5,4(a1)
    242c:	00100513          	li	a0,1
    2430:	001f0813          	addi	a6,t5,1
    2434:	0105a223          	sw	a6,4(a1)
    2438:	f15ff06f          	j	234c <core_state_transition+0x134>
    243c:	0145af83          	lw	t6,20(a1)
    2440:	00100513          	li	a0,1
    2444:	001f8613          	addi	a2,t6,1
    2448:	00c5aa23          	sw	a2,20(a1)
    244c:	f01ff06f          	j	234c <core_state_transition+0x134>
    2450:	0075a023          	sw	t2,0(a1)
    2454:	00134283          	lbu	t0,1(t1)
    2458:	0c028263          	beqz	t0,251c <core_state_transition+0x304>
    245c:	12a28e63          	beq	t0,a0,2598 <core_state_transition+0x380>
    2460:	00068f93          	mv	t6,a3
    2464:	e61ff06f          	j	22c4 <core_state_transition+0xac>
    2468:	0075a023          	sw	t2,0(a1)
    246c:	00134503          	lbu	a0,1(t1)
    2470:	12050063          	beqz	a0,2590 <core_state_transition+0x378>
    2474:	02c00813          	li	a6,44
    2478:	13050863          	beq	a0,a6,25a8 <core_state_transition+0x390>
    247c:	0085a683          	lw	a3,8(a1)
    2480:	fd050713          	addi	a4,a0,-48
    2484:	0ff77793          	zext.b	a5,a4
    2488:	00900613          	li	a2,9
    248c:	00168293          	addi	t0,a3,1
    2490:	00230713          	addi	a4,t1,2
    2494:	00f67c63          	bgeu	a2,a5,24ac <core_state_transition+0x294>
    2498:	02e00893          	li	a7,46
    249c:	03150863          	beq	a0,a7,24cc <core_state_transition+0x2b4>
    24a0:	0055a423          	sw	t0,8(a1)
    24a4:	00100513          	li	a0,1
    24a8:	ea5ff06f          	j	234c <core_state_transition+0x134>
    24ac:	0055a423          	sw	t0,8(a1)
    24b0:	00234783          	lbu	a5,2(t1)
    24b4:	04078063          	beqz	a5,24f4 <core_state_transition+0x2dc>
    24b8:	db0798e3          	bne	a5,a6,2268 <core_state_transition+0x50>
    24bc:	00330693          	addi	a3,t1,3
    24c0:	00400513          	li	a0,4
    24c4:	00068713          	mv	a4,a3
    24c8:	f49ff06f          	j	2410 <core_state_transition+0x1f8>
    24cc:	0055a423          	sw	t0,8(a1)
    24d0:	00234283          	lbu	t0,2(t1)
    24d4:	04028463          	beqz	t0,251c <core_state_transition+0x304>
    24d8:	0f028063          	beq	t0,a6,25b8 <core_state_transition+0x3a0>
    24dc:	00070f93          	mv	t6,a4
    24e0:	de5ff06f          	j	22c4 <core_state_transition+0xac>
    24e4:	00000513          	li	a0,0
    24e8:	00068713          	mv	a4,a3
    24ec:	f25ff06f          	j	2410 <core_state_transition+0x1f8>
    24f0:	000f8713          	mv	a4,t6
    24f4:	00400513          	li	a0,4
    24f8:	e55ff06f          	j	234c <core_state_transition+0x134>
    24fc:	00230693          	addi	a3,t1,2
    2500:	00400513          	li	a0,4
    2504:	00068713          	mv	a4,a3
    2508:	f09ff06f          	j	2410 <core_state_transition+0x1f8>
    250c:	00700513          	li	a0,7
    2510:	e3dff06f          	j	234c <core_state_transition+0x134>
    2514:	00600513          	li	a0,6
    2518:	e35ff06f          	j	234c <core_state_transition+0x134>
    251c:	00500513          	li	a0,5
    2520:	e2dff06f          	j	234c <core_state_transition+0x134>
    2524:	002f8693          	addi	a3,t6,2
    2528:	00300513          	li	a0,3
    252c:	00068713          	mv	a4,a3
    2530:	ee1ff06f          	j	2410 <core_state_transition+0x1f8>
    2534:	003f8693          	addi	a3,t6,3
    2538:	00600513          	li	a0,6
    253c:	00068713          	mv	a4,a3
    2540:	ed1ff06f          	j	2410 <core_state_transition+0x1f8>
    2544:	004f8693          	addi	a3,t6,4
    2548:	00700513          	li	a0,7
    254c:	00068713          	mv	a4,a3
    2550:	ec1ff06f          	j	2410 <core_state_transition+0x1f8>
    2554:	000f8713          	mv	a4,t6
    2558:	00500513          	li	a0,5
    255c:	df1ff06f          	j	234c <core_state_transition+0x134>
    2560:	00270693          	addi	a3,a4,2
    2564:	00400513          	li	a0,4
    2568:	00068713          	mv	a4,a3
    256c:	ea5ff06f          	j	2410 <core_state_transition+0x1f8>
    2570:	00270693          	addi	a3,a4,2
    2574:	00500513          	li	a0,5
    2578:	00068713          	mv	a4,a3
    257c:	e95ff06f          	j	2410 <core_state_transition+0x1f8>
    2580:	002f8693          	addi	a3,t6,2
    2584:	00500513          	li	a0,5
    2588:	00068713          	mv	a4,a3
    258c:	e85ff06f          	j	2410 <core_state_transition+0x1f8>
    2590:	00200513          	li	a0,2
    2594:	db9ff06f          	j	234c <core_state_transition+0x134>
    2598:	00230693          	addi	a3,t1,2
    259c:	00500513          	li	a0,5
    25a0:	00068713          	mv	a4,a3
    25a4:	e6dff06f          	j	2410 <core_state_transition+0x1f8>
    25a8:	00168693          	addi	a3,a3,1
    25ac:	00200513          	li	a0,2
    25b0:	00068713          	mv	a4,a3
    25b4:	e5dff06f          	j	2410 <core_state_transition+0x1f8>
    25b8:	00330693          	addi	a3,t1,3
    25bc:	00500513          	li	a0,5
    25c0:	00068713          	mv	a4,a3
    25c4:	e4dff06f          	j	2410 <core_state_transition+0x1f8>

000025c8 <core_bench_state>:
    25c8:	f8010113          	addi	sp,sp,-128
    25cc:	06912a23          	sw	s1,116(sp)
    25d0:	07212823          	sw	s2,112(sp)
    25d4:	07312623          	sw	s3,108(sp)
    25d8:	07412423          	sw	s4,104(sp)
    25dc:	07512223          	sw	s5,100(sp)
    25e0:	07612023          	sw	s6,96(sp)
    25e4:	05712e23          	sw	s7,92(sp)
    25e8:	06112e23          	sw	ra,124(sp)
    25ec:	06812c23          	sw	s0,120(sp)
    25f0:	0005c403          	lbu	s0,0(a1)
    25f4:	02012823          	sw	zero,48(sp)
    25f8:	00012823          	sw	zero,16(sp)
    25fc:	02012a23          	sw	zero,52(sp)
    2600:	02012c23          	sw	zero,56(sp)
    2604:	02012e23          	sw	zero,60(sp)
    2608:	04012023          	sw	zero,64(sp)
    260c:	04012223          	sw	zero,68(sp)
    2610:	04012423          	sw	zero,72(sp)
    2614:	04012623          	sw	zero,76(sp)
    2618:	00012a23          	sw	zero,20(sp)
    261c:	00012c23          	sw	zero,24(sp)
    2620:	00012e23          	sw	zero,28(sp)
    2624:	02012023          	sw	zero,32(sp)
    2628:	02012223          	sw	zero,36(sp)
    262c:	02012423          	sw	zero,40(sp)
    2630:	02012623          	sw	zero,44(sp)
    2634:	00058493          	mv	s1,a1
    2638:	03010993          	addi	s3,sp,48
    263c:	00050b93          	mv	s7,a0
    2640:	00060b13          	mv	s6,a2
    2644:	00068a93          	mv	s5,a3
    2648:	00070a13          	mv	s4,a4
    264c:	00078913          	mv	s2,a5
    2650:	02040c63          	beqz	s0,2688 <core_bench_state+0xc0>
    2654:	00b12623          	sw	a1,12(sp)
    2658:	00098593          	mv	a1,s3
    265c:	00c10513          	addi	a0,sp,12
    2660:	bb9ff0ef          	jal	ra,2218 <core_state_transition>
    2664:	00251813          	slli	a6,a0,0x2
    2668:	05080793          	addi	a5,a6,80
    266c:	002782b3          	add	t0,a5,sp
    2670:	00c12703          	lw	a4,12(sp)
    2674:	fc02a303          	lw	t1,-64(t0)
    2678:	00074383          	lbu	t2,0(a4)
    267c:	00130513          	addi	a0,t1,1
    2680:	fca2a023          	sw	a0,-64(t0)
    2684:	fc039ae3          	bnez	t2,2658 <core_bench_state+0x90>
    2688:	01748bb3          	add	s7,s1,s7
    268c:	00048593          	mv	a1,s1
    2690:	02c00693          	li	a3,44
    2694:	0174e663          	bltu	s1,s7,26a0 <core_bench_state+0xd8>
    2698:	0dc0006f          	j	2774 <core_bench_state+0x1ac>
    269c:	0005c403          	lbu	s0,0(a1)
    26a0:	016440b3          	xor	ra,s0,s6
    26a4:	00d40463          	beq	s0,a3,26ac <core_bench_state+0xe4>
    26a8:	00158023          	sb	ra,0(a1)
    26ac:	014585b3          	add	a1,a1,s4
    26b0:	ff75e6e3          	bltu	a1,s7,269c <core_bench_state+0xd4>
    26b4:	0004c403          	lbu	s0,0(s1)
    26b8:	00912623          	sw	s1,12(sp)
    26bc:	02040e63          	beqz	s0,26f8 <core_bench_state+0x130>
    26c0:	00098593          	mv	a1,s3
    26c4:	00c10513          	addi	a0,sp,12
    26c8:	b51ff0ef          	jal	ra,2218 <core_state_transition>
    26cc:	00251613          	slli	a2,a0,0x2
    26d0:	05060893          	addi	a7,a2,80
    26d4:	00288e33          	add	t3,a7,sp
    26d8:	00c12f03          	lw	t5,12(sp)
    26dc:	fc0e2e83          	lw	t4,-64(t3)
    26e0:	000f4f83          	lbu	t6,0(t5)
    26e4:	001e8b13          	addi	s6,t4,1
    26e8:	fd6e2023          	sw	s6,-64(t3)
    26ec:	fc0f9ae3          	bnez	t6,26c0 <core_bench_state+0xf8>
    26f0:	00912623          	sw	s1,12(sp)
    26f4:	0374f263          	bgeu	s1,s7,2718 <core_bench_state+0x150>
    26f8:	02c00813          	li	a6,44
    26fc:	0080006f          	j	2704 <core_bench_state+0x13c>
    2700:	0004c403          	lbu	s0,0(s1)
    2704:	015447b3          	xor	a5,s0,s5
    2708:	01040463          	beq	s0,a6,2710 <core_bench_state+0x148>
    270c:	00f48023          	sb	a5,0(s1)
    2710:	014484b3          	add	s1,s1,s4
    2714:	ff74e6e3          	bltu	s1,s7,2700 <core_bench_state+0x138>
    2718:	01010413          	addi	s0,sp,16
    271c:	00098b13          	mv	s6,s3
    2720:	00042503          	lw	a0,0(s0)
    2724:	00090593          	mv	a1,s2
    2728:	00440413          	addi	s0,s0,4
    272c:	954ff0ef          	jal	ra,1880 <crcu32>
    2730:	00050593          	mv	a1,a0
    2734:	000b2503          	lw	a0,0(s6)
    2738:	004b0b13          	addi	s6,s6,4
    273c:	944ff0ef          	jal	ra,1880 <crcu32>
    2740:	00050913          	mv	s2,a0
    2744:	fc899ee3          	bne	s3,s0,2720 <core_bench_state+0x158>
    2748:	07c12083          	lw	ra,124(sp)
    274c:	07812403          	lw	s0,120(sp)
    2750:	07412483          	lw	s1,116(sp)
    2754:	07012903          	lw	s2,112(sp)
    2758:	06c12983          	lw	s3,108(sp)
    275c:	06812a03          	lw	s4,104(sp)
    2760:	06412a83          	lw	s5,100(sp)
    2764:	06012b03          	lw	s6,96(sp)
    2768:	05c12b83          	lw	s7,92(sp)
    276c:	08010113          	addi	sp,sp,128
    2770:	00008067          	ret
    2774:	00912623          	sw	s1,12(sp)
    2778:	f40414e3          	bnez	s0,26c0 <core_bench_state+0xf8>
    277c:	f9dff06f          	j	2718 <core_bench_state+0x150>

00002780 <core_init_matrix>:
    2780:	fd010113          	addi	sp,sp,-48
    2784:	03212223          	sw	s2,36(sp)
    2788:	02812623          	sw	s0,44(sp)
    278c:	02912423          	sw	s1,40(sp)
    2790:	03312023          	sw	s3,32(sp)
    2794:	01412e23          	sw	s4,28(sp)
    2798:	01512c23          	sw	s5,24(sp)
    279c:	01612a23          	sw	s6,20(sp)
    27a0:	01712823          	sw	s7,16(sp)
    27a4:	01812623          	sw	s8,12(sp)
    27a8:	01912423          	sw	s9,8(sp)
    27ac:	01a12223          	sw	s10,4(sp)
    27b0:	00050813          	mv	a6,a0
    27b4:	00068913          	mv	s2,a3
    27b8:	00061463          	bnez	a2,27c0 <core_init_matrix+0x40>
    27bc:	00100613          	li	a2,1
    27c0:	fff58593          	addi	a1,a1,-1
    27c4:	ffc5f413          	andi	s0,a1,-4
    27c8:	00440a13          	addi	s4,s0,4
    27cc:	00000793          	li	a5,0
    27d0:	32080863          	beqz	a6,2b00 <core_init_matrix+0x380>
    27d4:	00078513          	mv	a0,a5
    27d8:	00178793          	addi	a5,a5,1
    27dc:	02f78733          	mul	a4,a5,a5
    27e0:	00371293          	slli	t0,a4,0x3
    27e4:	ff02e8e3          	bltu	t0,a6,27d4 <core_init_matrix+0x54>
    27e8:	02a50333          	mul	t1,a0,a0
    27ec:	00050a93          	mv	s5,a0
    27f0:	00131493          	slli	s1,t1,0x1
    27f4:	009a0433          	add	s0,s4,s1
    27f8:	2a050a63          	beqz	a0,2aac <core_init_matrix+0x32c>
    27fc:	00010eb7          	lui	t4,0x10
    2800:	00000693          	li	a3,0
    2804:	00000393          	li	t2,0
    2808:	00100f93          	li	t6,1
    280c:	408a0f33          	sub	t5,s4,s0
    2810:	fffe8e93          	addi	t4,t4,-1 # ffff <__DTOR_END__+0x62db>
    2814:	fff50993          	addi	s3,a0,-1
    2818:	03f60633          	mul	a2,a2,t6
    281c:	010f9893          	slli	a7,t6,0x10
    2820:	0108db13          	srli	s6,a7,0x10
    2824:	00169b93          	slli	s7,a3,0x1
    2828:	008b8c33          	add	s8,s7,s0
    282c:	fff50d13          	addi	s10,a0,-1
    2830:	003d7713          	andi	a4,s10,3
    2834:	018f0cb3          	add	s9,t5,s8
    2838:	00100e13          	li	t3,1
    283c:	001f8813          	addi	a6,t6,1
    2840:	41f65793          	srai	a5,a2,0x1f
    2844:	0107d293          	srli	t0,a5,0x10
    2848:	00560333          	add	t1,a2,t0
    284c:	01d37633          	and	a2,t1,t4
    2850:	40560633          	sub	a2,a2,t0
    2854:	00cb08b3          	add	a7,s6,a2
    2858:	01089b93          	slli	s7,a7,0x10
    285c:	010bdd13          	srli	s10,s7,0x10
    2860:	016d0b33          	add	s6,s10,s6
    2864:	01ac1023          	sh	s10,0(s8)
    2868:	0ffb7793          	zext.b	a5,s6
    286c:	00fc9023          	sh	a5,0(s9)
    2870:	002c0593          	addi	a1,s8,2
    2874:	20ae7c63          	bgeu	t3,a0,2a8c <core_init_matrix+0x30c>
    2878:	0e070c63          	beqz	a4,2970 <core_init_matrix+0x1f0>
    287c:	0bc70263          	beq	a4,t3,2920 <core_init_matrix+0x1a0>
    2880:	00200c93          	li	s9,2
    2884:	05970863          	beq	a4,s9,28d4 <core_init_matrix+0x154>
    2888:	030602b3          	mul	t0,a2,a6
    288c:	01081e13          	slli	t3,a6,0x10
    2890:	010e5893          	srli	a7,t3,0x10
    2894:	00bf0333          	add	t1,t5,a1
    2898:	004c0593          	addi	a1,s8,4
    289c:	002f8813          	addi	a6,t6,2
    28a0:	00200e13          	li	t3,2
    28a4:	41f2d713          	srai	a4,t0,0x1f
    28a8:	01075b93          	srli	s7,a4,0x10
    28ac:	01728633          	add	a2,t0,s7
    28b0:	01d67d33          	and	s10,a2,t4
    28b4:	417d0633          	sub	a2,s10,s7
    28b8:	00c88b33          	add	s6,a7,a2
    28bc:	010b1793          	slli	a5,s6,0x10
    28c0:	0107dc93          	srli	s9,a5,0x10
    28c4:	011c82b3          	add	t0,s9,a7
    28c8:	019c1123          	sh	s9,2(s8)
    28cc:	0ff2fc13          	zext.b	s8,t0
    28d0:	01831023          	sh	s8,0(t1)
    28d4:	03060333          	mul	t1,a2,a6
    28d8:	01081893          	slli	a7,a6,0x10
    28dc:	0108db93          	srli	s7,a7,0x10
    28e0:	00bf0d33          	add	s10,t5,a1
    28e4:	001e0e13          	addi	t3,t3,1
    28e8:	00180813          	addi	a6,a6,1
    28ec:	00258593          	addi	a1,a1,2
    28f0:	41f35713          	srai	a4,t1,0x1f
    28f4:	01075b13          	srli	s6,a4,0x10
    28f8:	01630633          	add	a2,t1,s6
    28fc:	01d677b3          	and	a5,a2,t4
    2900:	41678633          	sub	a2,a5,s6
    2904:	00cb8cb3          	add	s9,s7,a2
    2908:	010c9293          	slli	t0,s9,0x10
    290c:	0102dc13          	srli	s8,t0,0x10
    2910:	017c0333          	add	t1,s8,s7
    2914:	ff859f23          	sh	s8,-2(a1)
    2918:	0ff37893          	zext.b	a7,t1
    291c:	011d1023          	sh	a7,0(s10)
    2920:	03060bb3          	mul	s7,a2,a6
    2924:	01081d13          	slli	s10,a6,0x10
    2928:	010d5b13          	srli	s6,s10,0x10
    292c:	00bf0cb3          	add	s9,t5,a1
    2930:	00258593          	addi	a1,a1,2
    2934:	001e0e13          	addi	t3,t3,1
    2938:	00180813          	addi	a6,a6,1
    293c:	41fbd713          	srai	a4,s7,0x1f
    2940:	01075793          	srli	a5,a4,0x10
    2944:	00fb8633          	add	a2,s7,a5
    2948:	01d672b3          	and	t0,a2,t4
    294c:	40f28633          	sub	a2,t0,a5
    2950:	00cb0c33          	add	s8,s6,a2
    2954:	010c1313          	slli	t1,s8,0x10
    2958:	01035893          	srli	a7,t1,0x10
    295c:	01688bb3          	add	s7,a7,s6
    2960:	ff159f23          	sh	a7,-2(a1)
    2964:	0ffbfd13          	zext.b	s10,s7
    2968:	01ac9023          	sh	s10,0(s9)
    296c:	12ae7063          	bgeu	t3,a0,2a8c <core_init_matrix+0x30c>
    2970:	03060633          	mul	a2,a2,a6
    2974:	00180713          	addi	a4,a6,1
    2978:	01071c13          	slli	s8,a4,0x10
    297c:	01081c93          	slli	s9,a6,0x10
    2980:	010cd293          	srli	t0,s9,0x10
    2984:	00bf0cb3          	add	s9,t5,a1
    2988:	010c5b93          	srli	s7,s8,0x10
    298c:	000c8c13          	mv	s8,s9
    2990:	00280793          	addi	a5,a6,2
    2994:	01079313          	slli	t1,a5,0x10
    2998:	41f65d13          	srai	s10,a2,0x1f
    299c:	010d5d13          	srli	s10,s10,0x10
    29a0:	01a60633          	add	a2,a2,s10
    29a4:	01d67633          	and	a2,a2,t4
    29a8:	41a60d33          	sub	s10,a2,s10
    29ac:	02ed0733          	mul	a4,s10,a4
    29b0:	01a28633          	add	a2,t0,s10
    29b4:	01061d13          	slli	s10,a2,0x10
    29b8:	010d5613          	srli	a2,s10,0x10
    29bc:	005602b3          	add	t0,a2,t0
    29c0:	00c59023          	sh	a2,0(a1)
    29c4:	0ff2fd13          	zext.b	s10,t0
    29c8:	01ac9023          	sh	s10,0(s9)
    29cc:	000c8613          	mv	a2,s9
    29d0:	000c8293          	mv	t0,s9
    29d4:	41f75c93          	srai	s9,a4,0x1f
    29d8:	010cdd13          	srli	s10,s9,0x10
    29dc:	01a70733          	add	a4,a4,s10
    29e0:	01d77cb3          	and	s9,a4,t4
    29e4:	41ac8d33          	sub	s10,s9,s10
    29e8:	02fd07b3          	mul	a5,s10,a5
    29ec:	01ab8733          	add	a4,s7,s10
    29f0:	01071c93          	slli	s9,a4,0x10
    29f4:	010cdd13          	srli	s10,s9,0x10
    29f8:	017d0bb3          	add	s7,s10,s7
    29fc:	01a59123          	sh	s10,2(a1)
    2a00:	0ffbf713          	zext.b	a4,s7
    2a04:	00ec1123          	sh	a4,2(s8)
    2a08:	00380b13          	addi	s6,a6,3
    2a0c:	010b1893          	slli	a7,s6,0x10
    2a10:	41f7dc13          	srai	s8,a5,0x1f
    2a14:	010c5c93          	srli	s9,s8,0x10
    2a18:	019787b3          	add	a5,a5,s9
    2a1c:	01d7fd33          	and	s10,a5,t4
    2a20:	419d0bb3          	sub	s7,s10,s9
    2a24:	036b8b33          	mul	s6,s7,s6
    2a28:	01035313          	srli	t1,t1,0x10
    2a2c:	01730733          	add	a4,t1,s7
    2a30:	01071c13          	slli	s8,a4,0x10
    2a34:	010c5c93          	srli	s9,s8,0x10
    2a38:	006c8333          	add	t1,s9,t1
    2a3c:	01959223          	sh	s9,4(a1)
    2a40:	0ff37793          	zext.b	a5,t1
    2a44:	00f61223          	sh	a5,4(a2)
    2a48:	0108d893          	srli	a7,a7,0x10
    2a4c:	41fb5613          	srai	a2,s6,0x1f
    2a50:	01065d13          	srli	s10,a2,0x10
    2a54:	01ab0bb3          	add	s7,s6,s10
    2a58:	01dbfb33          	and	s6,s7,t4
    2a5c:	41ab0633          	sub	a2,s6,s10
    2a60:	00c88733          	add	a4,a7,a2
    2a64:	01071c13          	slli	s8,a4,0x10
    2a68:	010c5c93          	srli	s9,s8,0x10
    2a6c:	011c88b3          	add	a7,s9,a7
    2a70:	0ff8f313          	zext.b	t1,a7
    2a74:	01959323          	sh	s9,6(a1)
    2a78:	004e0e13          	addi	t3,t3,4
    2a7c:	00629323          	sh	t1,6(t0)
    2a80:	00858593          	addi	a1,a1,8
    2a84:	00480813          	addi	a6,a6,4
    2a88:	eeae64e3          	bltu	t3,a0,2970 <core_init_matrix+0x1f0>
    2a8c:	001f8f93          	addi	t6,t6,1
    2a90:	00000e13          	li	t3,0
    2a94:	00050463          	beqz	a0,2a9c <core_init_matrix+0x31c>
    2a98:	00098e13          	mv	t3,s3
    2a9c:	00138393          	addi	t2,t2,1
    2aa0:	01fe0fb3          	add	t6,t3,t6
    2aa4:	00a686b3          	add	a3,a3,a0
    2aa8:	d6a3e8e3          	bltu	t2,a0,2818 <core_init_matrix+0x98>
    2aac:	009404b3          	add	s1,s0,s1
    2ab0:	fff48693          	addi	a3,s1,-1
    2ab4:	00892423          	sw	s0,8(s2)
    2ab8:	ffc6f393          	andi	t2,a3,-4
    2abc:	02c12403          	lw	s0,44(sp)
    2ac0:	00438f13          	addi	t5,t2,4
    2ac4:	01492223          	sw	s4,4(s2)
    2ac8:	01592023          	sw	s5,0(s2)
    2acc:	01e92623          	sw	t5,12(s2)
    2ad0:	02812483          	lw	s1,40(sp)
    2ad4:	02412903          	lw	s2,36(sp)
    2ad8:	02012983          	lw	s3,32(sp)
    2adc:	01c12a03          	lw	s4,28(sp)
    2ae0:	01812a83          	lw	s5,24(sp)
    2ae4:	01412b03          	lw	s6,20(sp)
    2ae8:	01012b83          	lw	s7,16(sp)
    2aec:	00c12c03          	lw	s8,12(sp)
    2af0:	00812c83          	lw	s9,8(sp)
    2af4:	00412d03          	lw	s10,4(sp)
    2af8:	03010113          	addi	sp,sp,48
    2afc:	00008067          	ret
    2b00:	00640413          	addi	s0,s0,6
    2b04:	fff00a93          	li	s5,-1
    2b08:	fff00513          	li	a0,-1
    2b0c:	00200493          	li	s1,2
    2b10:	cedff06f          	j	27fc <core_init_matrix+0x7c>

00002b14 <matrix_sum>:
    2b14:	00050813          	mv	a6,a0
    2b18:	48050463          	beqz	a0,2fa0 <matrix_sum+0x48c>
    2b1c:	00251313          	slli	t1,a0,0x2
    2b20:	40a008b3          	neg	a7,a0
    2b24:	00658733          	add	a4,a1,t1
    2b28:	00000513          	li	a0,0
    2b2c:	00000593          	li	a1,0
    2b30:	00000f93          	li	t6,0
    2b34:	00000e93          	li	t4,0
    2b38:	00389893          	slli	a7,a7,0x3
    2b3c:	406706b3          	sub	a3,a4,t1
    2b40:	40d707b3          	sub	a5,a4,a3
    2b44:	ffc78293          	addi	t0,a5,-4
    2b48:	0022d393          	srli	t2,t0,0x2
    2b4c:	00138e13          	addi	t3,t2,1
    2b50:	007e7793          	andi	a5,t3,7
    2b54:	00068e13          	mv	t3,a3
    2b58:	28078a63          	beqz	a5,2dec <matrix_sum+0x2d8>
    2b5c:	00100f13          	li	t5,1
    2b60:	13e78a63          	beq	a5,t5,2c94 <matrix_sum+0x180>
    2b64:	00200293          	li	t0,2
    2b68:	10578063          	beq	a5,t0,2c68 <matrix_sum+0x154>
    2b6c:	00300393          	li	t2,3
    2b70:	0c778663          	beq	a5,t2,2c3c <matrix_sum+0x128>
    2b74:	00400f13          	li	t5,4
    2b78:	09e78c63          	beq	a5,t5,2c10 <matrix_sum+0xfc>
    2b7c:	00500293          	li	t0,5
    2b80:	06578263          	beq	a5,t0,2be4 <matrix_sum+0xd0>
    2b84:	00600393          	li	t2,6
    2b88:	02778863          	beq	a5,t2,2bb8 <matrix_sum+0xa4>
    2b8c:	000f8e13          	mv	t3,t6
    2b90:	0006af83          	lw	t6,0(a3)
    2b94:	01051513          	slli	a0,a0,0x10
    2b98:	01055f13          	srli	t5,a0,0x10
    2b9c:	01fe8eb3          	add	t4,t4,t6
    2ba0:	3fd64663          	blt	a2,t4,2f8c <matrix_sum+0x478>
    2ba4:	01fe27b3          	slt	a5,t3,t6
    2ba8:	00ff02b3          	add	t0,t5,a5
    2bac:	01029393          	slli	t2,t0,0x10
    2bb0:	4103d513          	srai	a0,t2,0x10
    2bb4:	00468e13          	addi	t3,a3,4
    2bb8:	000f8f13          	mv	t5,t6
    2bbc:	000e2f83          	lw	t6,0(t3)
    2bc0:	01051513          	slli	a0,a0,0x10
    2bc4:	01055293          	srli	t0,a0,0x10
    2bc8:	01fe8eb3          	add	t4,t4,t6
    2bcc:	3bd64663          	blt	a2,t4,2f78 <matrix_sum+0x464>
    2bd0:	01ff27b3          	slt	a5,t5,t6
    2bd4:	00f283b3          	add	t2,t0,a5
    2bd8:	01039f13          	slli	t5,t2,0x10
    2bdc:	410f5513          	srai	a0,t5,0x10
    2be0:	004e0e13          	addi	t3,t3,4
    2be4:	000f8293          	mv	t0,t6
    2be8:	000e2f83          	lw	t6,0(t3)
    2bec:	01051793          	slli	a5,a0,0x10
    2bf0:	0107d393          	srli	t2,a5,0x10
    2bf4:	01fe8eb3          	add	t4,t4,t6
    2bf8:	37d64663          	blt	a2,t4,2f64 <matrix_sum+0x450>
    2bfc:	01f2af33          	slt	t5,t0,t6
    2c00:	01e38533          	add	a0,t2,t5
    2c04:	01051293          	slli	t0,a0,0x10
    2c08:	4102d513          	srai	a0,t0,0x10
    2c0c:	004e0e13          	addi	t3,t3,4
    2c10:	000f8393          	mv	t2,t6
    2c14:	000e2f83          	lw	t6,0(t3)
    2c18:	01051f13          	slli	t5,a0,0x10
    2c1c:	010f5513          	srli	a0,t5,0x10
    2c20:	01fe8eb3          	add	t4,t4,t6
    2c24:	33d64663          	blt	a2,t4,2f50 <matrix_sum+0x43c>
    2c28:	01f3a2b3          	slt	t0,t2,t6
    2c2c:	005507b3          	add	a5,a0,t0
    2c30:	01079393          	slli	t2,a5,0x10
    2c34:	4103d513          	srai	a0,t2,0x10
    2c38:	004e0e13          	addi	t3,t3,4
    2c3c:	000f8293          	mv	t0,t6
    2c40:	000e2f83          	lw	t6,0(t3)
    2c44:	01051513          	slli	a0,a0,0x10
    2c48:	01055793          	srli	a5,a0,0x10
    2c4c:	01fe8eb3          	add	t4,t4,t6
    2c50:	2fd64663          	blt	a2,t4,2f3c <matrix_sum+0x428>
    2c54:	01f2a3b3          	slt	t2,t0,t6
    2c58:	00778f33          	add	t5,a5,t2
    2c5c:	010f1293          	slli	t0,t5,0x10
    2c60:	4102d513          	srai	a0,t0,0x10
    2c64:	004e0e13          	addi	t3,t3,4
    2c68:	000f8393          	mv	t2,t6
    2c6c:	000e2f83          	lw	t6,0(t3)
    2c70:	01051793          	slli	a5,a0,0x10
    2c74:	0107d293          	srli	t0,a5,0x10
    2c78:	01fe8eb3          	add	t4,t4,t6
    2c7c:	2bd64663          	blt	a2,t4,2f28 <matrix_sum+0x414>
    2c80:	01f3af33          	slt	t5,t2,t6
    2c84:	01e28533          	add	a0,t0,t5
    2c88:	01051393          	slli	t2,a0,0x10
    2c8c:	4103d513          	srai	a0,t2,0x10
    2c90:	004e0e13          	addi	t3,t3,4
    2c94:	000f8293          	mv	t0,t6
    2c98:	000e2f83          	lw	t6,0(t3)
    2c9c:	01051f13          	slli	t5,a0,0x10
    2ca0:	010f5513          	srli	a0,t5,0x10
    2ca4:	01fe8eb3          	add	t4,t4,t6
    2ca8:	27d64663          	blt	a2,t4,2f14 <matrix_sum+0x400>
    2cac:	01f2a3b3          	slt	t2,t0,t6
    2cb0:	007507b3          	add	a5,a0,t2
    2cb4:	01079293          	slli	t0,a5,0x10
    2cb8:	4102d513          	srai	a0,t0,0x10
    2cbc:	004e0e13          	addi	t3,t3,4
    2cc0:	13c71663          	bne	a4,t3,2dec <matrix_sum+0x2d8>
    2cc4:	00158593          	addi	a1,a1,1
    2cc8:	41168733          	sub	a4,a3,a7
    2ccc:	e6b818e3          	bne	a6,a1,2b3c <matrix_sum+0x28>
    2cd0:	00008067          	ret
    2cd4:	004e2f83          	lw	t6,4(t3)
    2cd8:	00a78793          	addi	a5,a5,10
    2cdc:	01079293          	slli	t0,a5,0x10
    2ce0:	4102d513          	srai	a0,t0,0x10
    2ce4:	00000293          	li	t0,0
    2ce8:	01051e93          	slli	t4,a0,0x10
    2cec:	01f28533          	add	a0,t0,t6
    2cf0:	004e0e13          	addi	t3,t3,4
    2cf4:	010ed793          	srli	a5,t4,0x10
    2cf8:	12a65863          	bge	a2,a0,2e28 <matrix_sum+0x314>
    2cfc:	00a78513          	addi	a0,a5,10
    2d00:	004e2383          	lw	t2,4(t3)
    2d04:	01051e93          	slli	t4,a0,0x10
    2d08:	410ed793          	srai	a5,t4,0x10
    2d0c:	00000513          	li	a0,0
    2d10:	01079f13          	slli	t5,a5,0x10
    2d14:	00750533          	add	a0,a0,t2
    2d18:	010f5293          	srli	t0,t5,0x10
    2d1c:	12a64863          	blt	a2,a0,2e4c <matrix_sum+0x338>
    2d20:	007fafb3          	slt	t6,t6,t2
    2d24:	01f28eb3          	add	t4,t0,t6
    2d28:	008e2f83          	lw	t6,8(t3)
    2d2c:	010e9793          	slli	a5,t4,0x10
    2d30:	4107d293          	srai	t0,a5,0x10
    2d34:	01029e93          	slli	t4,t0,0x10
    2d38:	01f50533          	add	a0,a0,t6
    2d3c:	010ed793          	srli	a5,t4,0x10
    2d40:	12a64863          	blt	a2,a0,2e70 <matrix_sum+0x35c>
    2d44:	01f3a3b3          	slt	t2,t2,t6
    2d48:	00778f33          	add	t5,a5,t2
    2d4c:	00ce2383          	lw	t2,12(t3)
    2d50:	010f1293          	slli	t0,t5,0x10
    2d54:	4102d793          	srai	a5,t0,0x10
    2d58:	01079f13          	slli	t5,a5,0x10
    2d5c:	00750533          	add	a0,a0,t2
    2d60:	010f5293          	srli	t0,t5,0x10
    2d64:	12a64863          	blt	a2,a0,2e94 <matrix_sum+0x380>
    2d68:	007fafb3          	slt	t6,t6,t2
    2d6c:	01f28eb3          	add	t4,t0,t6
    2d70:	010e2f83          	lw	t6,16(t3)
    2d74:	010e9793          	slli	a5,t4,0x10
    2d78:	4107d293          	srai	t0,a5,0x10
    2d7c:	01029e93          	slli	t4,t0,0x10
    2d80:	01f50533          	add	a0,a0,t6
    2d84:	010ed793          	srli	a5,t4,0x10
    2d88:	12a64863          	blt	a2,a0,2eb8 <matrix_sum+0x3a4>
    2d8c:	01f3a3b3          	slt	t2,t2,t6
    2d90:	00778f33          	add	t5,a5,t2
    2d94:	014e2383          	lw	t2,20(t3)
    2d98:	010f1293          	slli	t0,t5,0x10
    2d9c:	4102d793          	srai	a5,t0,0x10
    2da0:	01079f13          	slli	t5,a5,0x10
    2da4:	00750533          	add	a0,a0,t2
    2da8:	010f5293          	srli	t0,t5,0x10
    2dac:	12a64863          	blt	a2,a0,2edc <matrix_sum+0x3c8>
    2db0:	007fafb3          	slt	t6,t6,t2
    2db4:	01f28eb3          	add	t4,t0,t6
    2db8:	010e9793          	slli	a5,t4,0x10
    2dbc:	018e2f83          	lw	t6,24(t3)
    2dc0:	4107d293          	srai	t0,a5,0x10
    2dc4:	01029e93          	slli	t4,t0,0x10
    2dc8:	010ed793          	srli	a5,t4,0x10
    2dcc:	01f50eb3          	add	t4,a0,t6
    2dd0:	13d64863          	blt	a2,t4,2f00 <matrix_sum+0x3ec>
    2dd4:	01f3a3b3          	slt	t2,t2,t6
    2dd8:	00778f33          	add	t5,a5,t2
    2ddc:	010f1293          	slli	t0,t5,0x10
    2de0:	4102d513          	srai	a0,t0,0x10
    2de4:	01ce0e13          	addi	t3,t3,28
    2de8:	edc70ee3          	beq	a4,t3,2cc4 <matrix_sum+0x1b0>
    2dec:	000e2383          	lw	t2,0(t3)
    2df0:	01051513          	slli	a0,a0,0x10
    2df4:	01055793          	srli	a5,a0,0x10
    2df8:	007e82b3          	add	t0,t4,t2
    2dfc:	ec564ce3          	blt	a2,t0,2cd4 <matrix_sum+0x1c0>
    2e00:	007fafb3          	slt	t6,t6,t2
    2e04:	01f78eb3          	add	t4,a5,t6
    2e08:	004e2f83          	lw	t6,4(t3)
    2e0c:	010e9f13          	slli	t5,t4,0x10
    2e10:	410f5513          	srai	a0,t5,0x10
    2e14:	01051e93          	slli	t4,a0,0x10
    2e18:	01f28533          	add	a0,t0,t6
    2e1c:	004e0e13          	addi	t3,t3,4
    2e20:	010ed793          	srli	a5,t4,0x10
    2e24:	eca64ce3          	blt	a2,a0,2cfc <matrix_sum+0x1e8>
    2e28:	01f3a3b3          	slt	t2,t2,t6
    2e2c:	00778f33          	add	t5,a5,t2
    2e30:	004e2383          	lw	t2,4(t3)
    2e34:	010f1293          	slli	t0,t5,0x10
    2e38:	4102d793          	srai	a5,t0,0x10
    2e3c:	01079f13          	slli	t5,a5,0x10
    2e40:	00750533          	add	a0,a0,t2
    2e44:	010f5293          	srli	t0,t5,0x10
    2e48:	eca65ce3          	bge	a2,a0,2d20 <matrix_sum+0x20c>
    2e4c:	00a28513          	addi	a0,t0,10
    2e50:	008e2f83          	lw	t6,8(t3)
    2e54:	01051f13          	slli	t5,a0,0x10
    2e58:	410f5293          	srai	t0,t5,0x10
    2e5c:	00000513          	li	a0,0
    2e60:	01029e93          	slli	t4,t0,0x10
    2e64:	01f50533          	add	a0,a0,t6
    2e68:	010ed793          	srli	a5,t4,0x10
    2e6c:	eca65ce3          	bge	a2,a0,2d44 <matrix_sum+0x230>
    2e70:	00a78513          	addi	a0,a5,10
    2e74:	00ce2383          	lw	t2,12(t3)
    2e78:	01051e93          	slli	t4,a0,0x10
    2e7c:	410ed793          	srai	a5,t4,0x10
    2e80:	00000513          	li	a0,0
    2e84:	01079f13          	slli	t5,a5,0x10
    2e88:	00750533          	add	a0,a0,t2
    2e8c:	010f5293          	srli	t0,t5,0x10
    2e90:	eca65ce3          	bge	a2,a0,2d68 <matrix_sum+0x254>
    2e94:	00a28513          	addi	a0,t0,10
    2e98:	010e2f83          	lw	t6,16(t3)
    2e9c:	01051f13          	slli	t5,a0,0x10
    2ea0:	410f5293          	srai	t0,t5,0x10
    2ea4:	00000513          	li	a0,0
    2ea8:	01029e93          	slli	t4,t0,0x10
    2eac:	01f50533          	add	a0,a0,t6
    2eb0:	010ed793          	srli	a5,t4,0x10
    2eb4:	eca65ce3          	bge	a2,a0,2d8c <matrix_sum+0x278>
    2eb8:	00a78513          	addi	a0,a5,10
    2ebc:	014e2383          	lw	t2,20(t3)
    2ec0:	01051e93          	slli	t4,a0,0x10
    2ec4:	410ed793          	srai	a5,t4,0x10
    2ec8:	00000513          	li	a0,0
    2ecc:	01079f13          	slli	t5,a5,0x10
    2ed0:	00750533          	add	a0,a0,t2
    2ed4:	010f5293          	srli	t0,t5,0x10
    2ed8:	eca65ce3          	bge	a2,a0,2db0 <matrix_sum+0x29c>
    2edc:	00a28513          	addi	a0,t0,10
    2ee0:	01051f13          	slli	t5,a0,0x10
    2ee4:	018e2f83          	lw	t6,24(t3)
    2ee8:	410f5293          	srai	t0,t5,0x10
    2eec:	01029e93          	slli	t4,t0,0x10
    2ef0:	00000513          	li	a0,0
    2ef4:	010ed793          	srli	a5,t4,0x10
    2ef8:	01f50eb3          	add	t4,a0,t6
    2efc:	edd65ce3          	bge	a2,t4,2dd4 <matrix_sum+0x2c0>
    2f00:	00a78513          	addi	a0,a5,10
    2f04:	01051e93          	slli	t4,a0,0x10
    2f08:	410ed513          	srai	a0,t4,0x10
    2f0c:	00000e93          	li	t4,0
    2f10:	ed5ff06f          	j	2de4 <matrix_sum+0x2d0>
    2f14:	00a50e93          	addi	t4,a0,10
    2f18:	010e9f13          	slli	t5,t4,0x10
    2f1c:	410f5513          	srai	a0,t5,0x10
    2f20:	00000e93          	li	t4,0
    2f24:	d99ff06f          	j	2cbc <matrix_sum+0x1a8>
    2f28:	00a28e93          	addi	t4,t0,10
    2f2c:	010e9793          	slli	a5,t4,0x10
    2f30:	4107d513          	srai	a0,a5,0x10
    2f34:	00000e93          	li	t4,0
    2f38:	d59ff06f          	j	2c90 <matrix_sum+0x17c>
    2f3c:	00a78e93          	addi	t4,a5,10
    2f40:	010e9513          	slli	a0,t4,0x10
    2f44:	41055513          	srai	a0,a0,0x10
    2f48:	00000e93          	li	t4,0
    2f4c:	d19ff06f          	j	2c64 <matrix_sum+0x150>
    2f50:	00a50e93          	addi	t4,a0,10
    2f54:	010e9f13          	slli	t5,t4,0x10
    2f58:	410f5513          	srai	a0,t5,0x10
    2f5c:	00000e93          	li	t4,0
    2f60:	cd9ff06f          	j	2c38 <matrix_sum+0x124>
    2f64:	00a38e93          	addi	t4,t2,10
    2f68:	010e9793          	slli	a5,t4,0x10
    2f6c:	4107d513          	srai	a0,a5,0x10
    2f70:	00000e93          	li	t4,0
    2f74:	c99ff06f          	j	2c0c <matrix_sum+0xf8>
    2f78:	00a28e93          	addi	t4,t0,10
    2f7c:	010e9513          	slli	a0,t4,0x10
    2f80:	41055513          	srai	a0,a0,0x10
    2f84:	00000e93          	li	t4,0
    2f88:	c59ff06f          	j	2be0 <matrix_sum+0xcc>
    2f8c:	00af0e93          	addi	t4,t5,10
    2f90:	010e9e13          	slli	t3,t4,0x10
    2f94:	410e5513          	srai	a0,t3,0x10
    2f98:	00000e93          	li	t4,0
    2f9c:	c19ff06f          	j	2bb4 <matrix_sum+0xa0>
    2fa0:	00000513          	li	a0,0
    2fa4:	00008067          	ret

00002fa8 <matrix_mul_const>:
    2fa8:	1a050663          	beqz	a0,3154 <matrix_mul_const+0x1ac>
    2fac:	ff010113          	addi	sp,sp,-16
    2fb0:	00812623          	sw	s0,12(sp)
    2fb4:	40a003b3          	neg	t2,a0
    2fb8:	00151413          	slli	s0,a0,0x1
    2fbc:	00912423          	sw	s1,8(sp)
    2fc0:	01212223          	sw	s2,4(sp)
    2fc4:	01312023          	sw	s3,0(sp)
    2fc8:	00860833          	add	a6,a2,s0
    2fcc:	00000f93          	li	t6,0
    2fd0:	00000293          	li	t0,0
    2fd4:	00239393          	slli	t2,t2,0x2
    2fd8:	408808b3          	sub	a7,a6,s0
    2fdc:	41180633          	sub	a2,a6,a7
    2fe0:	ffe60313          	addi	t1,a2,-2
    2fe4:	00135493          	srli	s1,t1,0x1
    2fe8:	00148713          	addi	a4,s1,1
    2fec:	002f9793          	slli	a5,t6,0x2
    2ff0:	00777913          	andi	s2,a4,7
    2ff4:	00f587b3          	add	a5,a1,a5
    2ff8:	00088713          	mv	a4,a7
    2ffc:	0c090263          	beqz	s2,30c0 <matrix_mul_const+0x118>
    3000:	00100993          	li	s3,1
    3004:	0b390263          	beq	s2,s3,30a8 <matrix_mul_const+0x100>
    3008:	00200e13          	li	t3,2
    300c:	09c90463          	beq	s2,t3,3094 <matrix_mul_const+0xec>
    3010:	00300e93          	li	t4,3
    3014:	07d90663          	beq	s2,t4,3080 <matrix_mul_const+0xd8>
    3018:	00400f13          	li	t5,4
    301c:	05e90863          	beq	s2,t5,306c <matrix_mul_const+0xc4>
    3020:	00500613          	li	a2,5
    3024:	02c90a63          	beq	s2,a2,3058 <matrix_mul_const+0xb0>
    3028:	00600313          	li	t1,6
    302c:	00690c63          	beq	s2,t1,3044 <matrix_mul_const+0x9c>
    3030:	00089483          	lh	s1,0(a7)
    3034:	00288713          	addi	a4,a7,2
    3038:	00478793          	addi	a5,a5,4
    303c:	02d48933          	mul	s2,s1,a3
    3040:	ff27ae23          	sw	s2,-4(a5)
    3044:	00071983          	lh	s3,0(a4)
    3048:	00478793          	addi	a5,a5,4
    304c:	00270713          	addi	a4,a4,2
    3050:	02d98e33          	mul	t3,s3,a3
    3054:	ffc7ae23          	sw	t3,-4(a5)
    3058:	00071e83          	lh	t4,0(a4)
    305c:	00478793          	addi	a5,a5,4
    3060:	00270713          	addi	a4,a4,2
    3064:	02de8f33          	mul	t5,t4,a3
    3068:	ffe7ae23          	sw	t5,-4(a5)
    306c:	00071603          	lh	a2,0(a4)
    3070:	00478793          	addi	a5,a5,4
    3074:	00270713          	addi	a4,a4,2
    3078:	02d60333          	mul	t1,a2,a3
    307c:	fe67ae23          	sw	t1,-4(a5)
    3080:	00071483          	lh	s1,0(a4)
    3084:	00478793          	addi	a5,a5,4
    3088:	00270713          	addi	a4,a4,2
    308c:	02d48933          	mul	s2,s1,a3
    3090:	ff27ae23          	sw	s2,-4(a5)
    3094:	00071983          	lh	s3,0(a4)
    3098:	00478793          	addi	a5,a5,4
    309c:	00270713          	addi	a4,a4,2
    30a0:	02d98e33          	mul	t3,s3,a3
    30a4:	ffc7ae23          	sw	t3,-4(a5)
    30a8:	00071e83          	lh	t4,0(a4)
    30ac:	00478793          	addi	a5,a5,4
    30b0:	00270713          	addi	a4,a4,2
    30b4:	02de8f33          	mul	t5,t4,a3
    30b8:	ffe7ae23          	sw	t5,-4(a5)
    30bc:	06e80863          	beq	a6,a4,312c <matrix_mul_const+0x184>
    30c0:	00071983          	lh	s3,0(a4)
    30c4:	00271903          	lh	s2,2(a4)
    30c8:	00471483          	lh	s1,4(a4)
    30cc:	00671f03          	lh	t5,6(a4)
    30d0:	00871e83          	lh	t4,8(a4)
    30d4:	00a71e03          	lh	t3,10(a4)
    30d8:	00c71303          	lh	t1,12(a4)
    30dc:	00e71603          	lh	a2,14(a4)
    30e0:	02d989b3          	mul	s3,s3,a3
    30e4:	01070713          	addi	a4,a4,16
    30e8:	02078793          	addi	a5,a5,32
    30ec:	02d90933          	mul	s2,s2,a3
    30f0:	ff37a023          	sw	s3,-32(a5)
    30f4:	02d484b3          	mul	s1,s1,a3
    30f8:	ff27a223          	sw	s2,-28(a5)
    30fc:	02df0f33          	mul	t5,t5,a3
    3100:	fe97a423          	sw	s1,-24(a5)
    3104:	02de8eb3          	mul	t4,t4,a3
    3108:	ffe7a623          	sw	t5,-20(a5)
    310c:	02de0e33          	mul	t3,t3,a3
    3110:	ffd7a823          	sw	t4,-16(a5)
    3114:	02d30333          	mul	t1,t1,a3
    3118:	ffc7aa23          	sw	t3,-12(a5)
    311c:	02d60633          	mul	a2,a2,a3
    3120:	fe67ac23          	sw	t1,-8(a5)
    3124:	fec7ae23          	sw	a2,-4(a5)
    3128:	f8e81ce3          	bne	a6,a4,30c0 <matrix_mul_const+0x118>
    312c:	00128293          	addi	t0,t0,1
    3130:	00af8fb3          	add	t6,t6,a0
    3134:	40788833          	sub	a6,a7,t2
    3138:	ea5510e3          	bne	a0,t0,2fd8 <matrix_mul_const+0x30>
    313c:	00c12403          	lw	s0,12(sp)
    3140:	00812483          	lw	s1,8(sp)
    3144:	00412903          	lw	s2,4(sp)
    3148:	00012983          	lw	s3,0(sp)
    314c:	01010113          	addi	sp,sp,16
    3150:	00008067          	ret
    3154:	00008067          	ret

00003158 <matrix_add_const>:
    3158:	22050c63          	beqz	a0,3390 <matrix_add_const+0x238>
    315c:	01061693          	slli	a3,a2,0x10
    3160:	00151393          	slli	t2,a0,0x1
    3164:	40a002b3          	neg	t0,a0
    3168:	0106d693          	srli	a3,a3,0x10
    316c:	00758633          	add	a2,a1,t2
    3170:	00000f93          	li	t6,0
    3174:	00229293          	slli	t0,t0,0x2
    3178:	407605b3          	sub	a1,a2,t2
    317c:	40b60733          	sub	a4,a2,a1
    3180:	ffe70313          	addi	t1,a4,-2
    3184:	00135793          	srli	a5,t1,0x1
    3188:	00178813          	addi	a6,a5,1
    318c:	00787893          	andi	a7,a6,7
    3190:	00058793          	mv	a5,a1
    3194:	0a088463          	beqz	a7,323c <matrix_add_const+0xe4>
    3198:	00100e13          	li	t3,1
    319c:	09c88663          	beq	a7,t3,3228 <matrix_add_const+0xd0>
    31a0:	00200e93          	li	t4,2
    31a4:	07d88a63          	beq	a7,t4,3218 <matrix_add_const+0xc0>
    31a8:	00300f13          	li	t5,3
    31ac:	05e88e63          	beq	a7,t5,3208 <matrix_add_const+0xb0>
    31b0:	00400713          	li	a4,4
    31b4:	04e88263          	beq	a7,a4,31f8 <matrix_add_const+0xa0>
    31b8:	00500313          	li	t1,5
    31bc:	02688663          	beq	a7,t1,31e8 <matrix_add_const+0x90>
    31c0:	00600813          	li	a6,6
    31c4:	01088a63          	beq	a7,a6,31d8 <matrix_add_const+0x80>
    31c8:	0005d883          	lhu	a7,0(a1)
    31cc:	00258793          	addi	a5,a1,2
    31d0:	01168e33          	add	t3,a3,a7
    31d4:	01c59023          	sh	t3,0(a1)
    31d8:	0007de83          	lhu	t4,0(a5)
    31dc:	00278793          	addi	a5,a5,2
    31e0:	01d68f33          	add	t5,a3,t4
    31e4:	ffe79f23          	sh	t5,-2(a5)
    31e8:	0007d703          	lhu	a4,0(a5)
    31ec:	00278793          	addi	a5,a5,2
    31f0:	00e68333          	add	t1,a3,a4
    31f4:	fe679f23          	sh	t1,-2(a5)
    31f8:	0007d803          	lhu	a6,0(a5)
    31fc:	00278793          	addi	a5,a5,2
    3200:	010688b3          	add	a7,a3,a6
    3204:	ff179f23          	sh	a7,-2(a5)
    3208:	0007de03          	lhu	t3,0(a5)
    320c:	00278793          	addi	a5,a5,2
    3210:	01c68eb3          	add	t4,a3,t3
    3214:	ffd79f23          	sh	t4,-2(a5)
    3218:	0007df03          	lhu	t5,0(a5)
    321c:	00278793          	addi	a5,a5,2
    3220:	01e68733          	add	a4,a3,t5
    3224:	fee79f23          	sh	a4,-2(a5)
    3228:	0007d303          	lhu	t1,0(a5)
    322c:	00278793          	addi	a5,a5,2
    3230:	00668833          	add	a6,a3,t1
    3234:	ff079f23          	sh	a6,-2(a5)
    3238:	14f60663          	beq	a2,a5,3384 <matrix_add_const+0x22c>
    323c:	ff010113          	addi	sp,sp,-16
    3240:	00812623          	sw	s0,12(sp)
    3244:	0007d403          	lhu	s0,0(a5)
    3248:	0027df03          	lhu	t5,2(a5)
    324c:	0047de83          	lhu	t4,4(a5)
    3250:	0067de03          	lhu	t3,6(a5)
    3254:	0087d303          	lhu	t1,8(a5)
    3258:	00a7d883          	lhu	a7,10(a5)
    325c:	00c7d803          	lhu	a6,12(a5)
    3260:	00e7d703          	lhu	a4,14(a5)
    3264:	00868433          	add	s0,a3,s0
    3268:	01e68f33          	add	t5,a3,t5
    326c:	01d68eb3          	add	t4,a3,t4
    3270:	01c68e33          	add	t3,a3,t3
    3274:	00668333          	add	t1,a3,t1
    3278:	011688b3          	add	a7,a3,a7
    327c:	01068833          	add	a6,a3,a6
    3280:	00e68733          	add	a4,a3,a4
    3284:	00879023          	sh	s0,0(a5)
    3288:	01e79123          	sh	t5,2(a5)
    328c:	01d79223          	sh	t4,4(a5)
    3290:	01c79323          	sh	t3,6(a5)
    3294:	00679423          	sh	t1,8(a5)
    3298:	01179523          	sh	a7,10(a5)
    329c:	01079623          	sh	a6,12(a5)
    32a0:	00e79723          	sh	a4,14(a5)
    32a4:	01078793          	addi	a5,a5,16
    32a8:	f8f61ee3          	bne	a2,a5,3244 <matrix_add_const+0xec>
    32ac:	001f8f93          	addi	t6,t6,1
    32b0:	40558633          	sub	a2,a1,t0
    32b4:	0df50263          	beq	a0,t6,3378 <matrix_add_const+0x220>
    32b8:	407605b3          	sub	a1,a2,t2
    32bc:	40b607b3          	sub	a5,a2,a1
    32c0:	ffe78413          	addi	s0,a5,-2
    32c4:	00145f13          	srli	t5,s0,0x1
    32c8:	001f0e93          	addi	t4,t5,1
    32cc:	007efe13          	andi	t3,t4,7
    32d0:	00058793          	mv	a5,a1
    32d4:	f60e08e3          	beqz	t3,3244 <matrix_add_const+0xec>
    32d8:	00100313          	li	t1,1
    32dc:	066e0e63          	beq	t3,t1,3358 <matrix_add_const+0x200>
    32e0:	00200893          	li	a7,2
    32e4:	071e0263          	beq	t3,a7,3348 <matrix_add_const+0x1f0>
    32e8:	00300813          	li	a6,3
    32ec:	050e0663          	beq	t3,a6,3338 <matrix_add_const+0x1e0>
    32f0:	00400713          	li	a4,4
    32f4:	02ee0a63          	beq	t3,a4,3328 <matrix_add_const+0x1d0>
    32f8:	00500413          	li	s0,5
    32fc:	008e0e63          	beq	t3,s0,3318 <matrix_add_const+0x1c0>
    3300:	00600f13          	li	t5,6
    3304:	09ee1863          	bne	t3,t5,3394 <matrix_add_const+0x23c>
    3308:	0007d303          	lhu	t1,0(a5)
    330c:	00278793          	addi	a5,a5,2
    3310:	006688b3          	add	a7,a3,t1
    3314:	ff179f23          	sh	a7,-2(a5)
    3318:	0007d803          	lhu	a6,0(a5)
    331c:	00278793          	addi	a5,a5,2
    3320:	01068733          	add	a4,a3,a6
    3324:	fee79f23          	sh	a4,-2(a5)
    3328:	0007d403          	lhu	s0,0(a5)
    332c:	00278793          	addi	a5,a5,2
    3330:	00868f33          	add	t5,a3,s0
    3334:	ffe79f23          	sh	t5,-2(a5)
    3338:	0007de83          	lhu	t4,0(a5)
    333c:	00278793          	addi	a5,a5,2
    3340:	01d68e33          	add	t3,a3,t4
    3344:	ffc79f23          	sh	t3,-2(a5)
    3348:	0007d303          	lhu	t1,0(a5)
    334c:	00278793          	addi	a5,a5,2
    3350:	006688b3          	add	a7,a3,t1
    3354:	ff179f23          	sh	a7,-2(a5)
    3358:	0007d803          	lhu	a6,0(a5)
    335c:	00278793          	addi	a5,a5,2
    3360:	01068733          	add	a4,a3,a6
    3364:	fee79f23          	sh	a4,-2(a5)
    3368:	ecf61ee3          	bne	a2,a5,3244 <matrix_add_const+0xec>
    336c:	001f8f93          	addi	t6,t6,1
    3370:	40558633          	sub	a2,a1,t0
    3374:	f5f512e3          	bne	a0,t6,32b8 <matrix_add_const+0x160>
    3378:	00c12403          	lw	s0,12(sp)
    337c:	01010113          	addi	sp,sp,16
    3380:	00008067          	ret
    3384:	001f8f93          	addi	t6,t6,1
    3388:	40558633          	sub	a2,a1,t0
    338c:	dff516e3          	bne	a0,t6,3178 <matrix_add_const+0x20>
    3390:	00008067          	ret
    3394:	0005de83          	lhu	t4,0(a1)
    3398:	00258793          	addi	a5,a1,2
    339c:	01d68e33          	add	t3,a3,t4
    33a0:	01c59023          	sh	t3,0(a1)
    33a4:	f65ff06f          	j	3308 <matrix_add_const+0x1b0>

000033a8 <matrix_mul_vect>:
    33a8:	22050c63          	beqz	a0,35e0 <matrix_mul_vect+0x238>
    33ac:	fd010113          	addi	sp,sp,-48
    33b0:	02912223          	sw	s1,36(sp)
    33b4:	00050493          	mv	s1,a0
    33b8:	01312e23          	sw	s3,28(sp)
    33bc:	00249993          	slli	s3,s1,0x2
    33c0:	03212023          	sw	s2,32(sp)
    33c4:	00058513          	mv	a0,a1
    33c8:	00060913          	mv	s2,a2
    33cc:	00000593          	li	a1,0
    33d0:	00098613          	mv	a2,s3
    33d4:	02812423          	sw	s0,40(sp)
    33d8:	02112623          	sw	ra,44(sp)
    33dc:	00068413          	mv	s0,a3
    33e0:	01412c23          	sw	s4,24(sp)
    33e4:	01512a23          	sw	s5,20(sp)
    33e8:	01612823          	sw	s6,16(sp)
    33ec:	01712623          	sw	s7,12(sp)
    33f0:	01812423          	sw	s8,8(sp)
    33f4:	01912223          	sw	s9,4(sp)
    33f8:	255030ef          	jal	ra,6e4c <memset>
    33fc:	00149693          	slli	a3,s1,0x1
    3400:	00050593          	mv	a1,a0
    3404:	00d406b3          	add	a3,s0,a3
    3408:	01350533          	add	a0,a0,s3
    340c:	00000613          	li	a2,0
    3410:	40868833          	sub	a6,a3,s0
    3414:	ffe80093          	addi	ra,a6,-2
    3418:	0010d293          	srli	t0,ra,0x1
    341c:	00128313          	addi	t1,t0,1
    3420:	00161793          	slli	a5,a2,0x1
    3424:	00737393          	andi	t2,t1,7
    3428:	00f907b3          	add	a5,s2,a5
    342c:	00040713          	mv	a4,s0
    3430:	00000893          	li	a7,0
    3434:	0c038e63          	beqz	t2,3510 <matrix_mul_vect+0x168>
    3438:	00100a13          	li	s4,1
    343c:	0b438c63          	beq	t2,s4,34f4 <matrix_mul_vect+0x14c>
    3440:	00200a93          	li	s5,2
    3444:	09538c63          	beq	t2,s5,34dc <matrix_mul_vect+0x134>
    3448:	00300b13          	li	s6,3
    344c:	07638c63          	beq	t2,s6,34c4 <matrix_mul_vect+0x11c>
    3450:	00400b93          	li	s7,4
    3454:	05738c63          	beq	t2,s7,34ac <matrix_mul_vect+0x104>
    3458:	00500c13          	li	s8,5
    345c:	03838c63          	beq	t2,s8,3494 <matrix_mul_vect+0xec>
    3460:	00600c93          	li	s9,6
    3464:	01938c63          	beq	t2,s9,347c <matrix_mul_vect+0xd4>
    3468:	00079883          	lh	a7,0(a5)
    346c:	00041e03          	lh	t3,0(s0)
    3470:	00278793          	addi	a5,a5,2
    3474:	00240713          	addi	a4,s0,2
    3478:	03c888b3          	mul	a7,a7,t3
    347c:	00079e83          	lh	t4,0(a5)
    3480:	00071f03          	lh	t5,0(a4)
    3484:	00278793          	addi	a5,a5,2
    3488:	00270713          	addi	a4,a4,2
    348c:	03ee8fb3          	mul	t6,t4,t5
    3490:	01f888b3          	add	a7,a7,t6
    3494:	00079983          	lh	s3,0(a5)
    3498:	00071803          	lh	a6,0(a4)
    349c:	00278793          	addi	a5,a5,2
    34a0:	00270713          	addi	a4,a4,2
    34a4:	030980b3          	mul	ra,s3,a6
    34a8:	001888b3          	add	a7,a7,ra
    34ac:	00079283          	lh	t0,0(a5)
    34b0:	00071303          	lh	t1,0(a4)
    34b4:	00278793          	addi	a5,a5,2
    34b8:	00270713          	addi	a4,a4,2
    34bc:	026283b3          	mul	t2,t0,t1
    34c0:	007888b3          	add	a7,a7,t2
    34c4:	00079a03          	lh	s4,0(a5)
    34c8:	00071a83          	lh	s5,0(a4)
    34cc:	00278793          	addi	a5,a5,2
    34d0:	00270713          	addi	a4,a4,2
    34d4:	035a0b33          	mul	s6,s4,s5
    34d8:	016888b3          	add	a7,a7,s6
    34dc:	00079b83          	lh	s7,0(a5)
    34e0:	00071c03          	lh	s8,0(a4)
    34e4:	00278793          	addi	a5,a5,2
    34e8:	00270713          	addi	a4,a4,2
    34ec:	038b8cb3          	mul	s9,s7,s8
    34f0:	019888b3          	add	a7,a7,s9
    34f4:	00079e03          	lh	t3,0(a5)
    34f8:	00071e83          	lh	t4,0(a4)
    34fc:	00270713          	addi	a4,a4,2
    3500:	00278793          	addi	a5,a5,2
    3504:	03de0f33          	mul	t5,t3,t4
    3508:	01e888b3          	add	a7,a7,t5
    350c:	08e68863          	beq	a3,a4,359c <matrix_mul_vect+0x1f4>
    3510:	00079983          	lh	s3,0(a5)
    3514:	00071803          	lh	a6,0(a4)
    3518:	00271a83          	lh	s5,2(a4)
    351c:	00279083          	lh	ra,2(a5)
    3520:	03098cb3          	mul	s9,s3,a6
    3524:	00479383          	lh	t2,4(a5)
    3528:	00471c03          	lh	s8,4(a4)
    352c:	00679f83          	lh	t6,6(a5)
    3530:	00671b83          	lh	s7,6(a4)
    3534:	00879f03          	lh	t5,8(a5)
    3538:	00871b03          	lh	s6,8(a4)
    353c:	00a79e83          	lh	t4,10(a5)
    3540:	00a71a03          	lh	s4,10(a4)
    3544:	00c79e03          	lh	t3,12(a5)
    3548:	035080b3          	mul	ra,ra,s5
    354c:	00c71983          	lh	s3,12(a4)
    3550:	00e79303          	lh	t1,14(a5)
    3554:	00e71283          	lh	t0,14(a4)
    3558:	019888b3          	add	a7,a7,s9
    355c:	01070713          	addi	a4,a4,16
    3560:	01078793          	addi	a5,a5,16
    3564:	03838ab3          	mul	s5,t2,s8
    3568:	00188833          	add	a6,a7,ra
    356c:	037f83b3          	mul	t2,t6,s7
    3570:	01580c33          	add	s8,a6,s5
    3574:	036f0fb3          	mul	t6,t5,s6
    3578:	007c0bb3          	add	s7,s8,t2
    357c:	034e8cb3          	mul	s9,t4,s4
    3580:	01fb8f33          	add	t5,s7,t6
    3584:	033e0b33          	mul	s6,t3,s3
    3588:	019f0eb3          	add	t4,t5,s9
    358c:	02530a33          	mul	s4,t1,t0
    3590:	016e8e33          	add	t3,t4,s6
    3594:	014e08b3          	add	a7,t3,s4
    3598:	f6e69ce3          	bne	a3,a4,3510 <matrix_mul_vect+0x168>
    359c:	0115a023          	sw	a7,0(a1)
    35a0:	00458593          	addi	a1,a1,4
    35a4:	00960633          	add	a2,a2,s1
    35a8:	e6b514e3          	bne	a0,a1,3410 <matrix_mul_vect+0x68>
    35ac:	02c12083          	lw	ra,44(sp)
    35b0:	02812403          	lw	s0,40(sp)
    35b4:	02412483          	lw	s1,36(sp)
    35b8:	02012903          	lw	s2,32(sp)
    35bc:	01c12983          	lw	s3,28(sp)
    35c0:	01812a03          	lw	s4,24(sp)
    35c4:	01412a83          	lw	s5,20(sp)
    35c8:	01012b03          	lw	s6,16(sp)
    35cc:	00c12b83          	lw	s7,12(sp)
    35d0:	00812c03          	lw	s8,8(sp)
    35d4:	00412c83          	lw	s9,4(sp)
    35d8:	03010113          	addi	sp,sp,48
    35dc:	00008067          	ret
    35e0:	00008067          	ret

000035e4 <matrix_mul_matrix>:
    35e4:	fb010113          	addi	sp,sp,-80
    35e8:	04112623          	sw	ra,76(sp)
    35ec:	04812423          	sw	s0,72(sp)
    35f0:	04912223          	sw	s1,68(sp)
    35f4:	05212023          	sw	s2,64(sp)
    35f8:	03312e23          	sw	s3,60(sp)
    35fc:	03412c23          	sw	s4,56(sp)
    3600:	03512a23          	sw	s5,52(sp)
    3604:	03612823          	sw	s6,48(sp)
    3608:	03712623          	sw	s7,44(sp)
    360c:	03812423          	sw	s8,40(sp)
    3610:	03912223          	sw	s9,36(sp)
    3614:	03a12023          	sw	s10,32(sp)
    3618:	01b12e23          	sw	s11,28(sp)
    361c:	00b12423          	sw	a1,8(sp)
    3620:	00d12623          	sw	a3,12(sp)
    3624:	22050063          	beqz	a0,3844 <matrix_mul_matrix+0x260>
    3628:	00151413          	slli	s0,a0,0x1
    362c:	00050a93          	mv	s5,a0
    3630:	00060993          	mv	s3,a2
    3634:	00860933          	add	s2,a2,s0
    3638:	00251493          	slli	s1,a0,0x2
    363c:	00000b13          	li	s6,0
    3640:	00000b93          	li	s7,0
    3644:	00812783          	lw	a5,8(sp)
    3648:	002b1f13          	slli	t5,s6,0x2
    364c:	00048613          	mv	a2,s1
    3650:	01e78533          	add	a0,a5,t5
    3654:	00000593          	li	a1,0
    3658:	7f4030ef          	jal	ra,6e4c <memset>
    365c:	00c12603          	lw	a2,12(sp)
    3660:	00050f13          	mv	t5,a0
    3664:	00000f93          	li	t6,0
    3668:	41390733          	sub	a4,s2,s3
    366c:	ffe70093          	addi	ra,a4,-2
    3670:	0010d293          	srli	t0,ra,0x1
    3674:	00128313          	addi	t1,t0,1
    3678:	00737393          	andi	t2,t1,7
    367c:	00060593          	mv	a1,a2
    3680:	00098693          	mv	a3,s3
    3684:	00000793          	li	a5,0
    3688:	0c038e63          	beqz	t2,3764 <matrix_mul_matrix+0x180>
    368c:	00100813          	li	a6,1
    3690:	0b038c63          	beq	t2,a6,3748 <matrix_mul_matrix+0x164>
    3694:	00200893          	li	a7,2
    3698:	09138c63          	beq	t2,a7,3730 <matrix_mul_matrix+0x14c>
    369c:	00300a13          	li	s4,3
    36a0:	07438c63          	beq	t2,s4,3718 <matrix_mul_matrix+0x134>
    36a4:	00400c13          	li	s8,4
    36a8:	05838c63          	beq	t2,s8,3700 <matrix_mul_matrix+0x11c>
    36ac:	00500c93          	li	s9,5
    36b0:	03938c63          	beq	t2,s9,36e8 <matrix_mul_matrix+0x104>
    36b4:	00600d13          	li	s10,6
    36b8:	01a38c63          	beq	t2,s10,36d0 <matrix_mul_matrix+0xec>
    36bc:	00099d83          	lh	s11,0(s3)
    36c0:	00061e03          	lh	t3,0(a2)
    36c4:	00298693          	addi	a3,s3,2
    36c8:	008605b3          	add	a1,a2,s0
    36cc:	03cd87b3          	mul	a5,s11,t3
    36d0:	00069e83          	lh	t4,0(a3)
    36d4:	00059503          	lh	a0,0(a1)
    36d8:	00268693          	addi	a3,a3,2
    36dc:	008585b3          	add	a1,a1,s0
    36e0:	02ae8733          	mul	a4,t4,a0
    36e4:	00e787b3          	add	a5,a5,a4
    36e8:	00069083          	lh	ra,0(a3)
    36ec:	00059283          	lh	t0,0(a1)
    36f0:	00268693          	addi	a3,a3,2
    36f4:	008585b3          	add	a1,a1,s0
    36f8:	02508333          	mul	t1,ra,t0
    36fc:	006787b3          	add	a5,a5,t1
    3700:	00069383          	lh	t2,0(a3)
    3704:	00059803          	lh	a6,0(a1)
    3708:	00268693          	addi	a3,a3,2
    370c:	008585b3          	add	a1,a1,s0
    3710:	030388b3          	mul	a7,t2,a6
    3714:	011787b3          	add	a5,a5,a7
    3718:	00069a03          	lh	s4,0(a3)
    371c:	00059c03          	lh	s8,0(a1)
    3720:	00268693          	addi	a3,a3,2
    3724:	008585b3          	add	a1,a1,s0
    3728:	038a0cb3          	mul	s9,s4,s8
    372c:	019787b3          	add	a5,a5,s9
    3730:	00069d03          	lh	s10,0(a3)
    3734:	00059d83          	lh	s11,0(a1)
    3738:	00268693          	addi	a3,a3,2
    373c:	008585b3          	add	a1,a1,s0
    3740:	03bd0e33          	mul	t3,s10,s11
    3744:	01c787b3          	add	a5,a5,t3
    3748:	00069e83          	lh	t4,0(a3)
    374c:	00059503          	lh	a0,0(a1)
    3750:	00268693          	addi	a3,a3,2
    3754:	008585b3          	add	a1,a1,s0
    3758:	02ae8733          	mul	a4,t4,a0
    375c:	00e787b3          	add	a5,a5,a4
    3760:	0ad90663          	beq	s2,a3,380c <matrix_mul_matrix+0x228>
    3764:	008580b3          	add	ra,a1,s0
    3768:	00069283          	lh	t0,0(a3)
    376c:	00059803          	lh	a6,0(a1)
    3770:	008088b3          	add	a7,ra,s0
    3774:	00009303          	lh	t1,0(ra)
    3778:	00269c83          	lh	s9,2(a3)
    377c:	00888a33          	add	s4,a7,s0
    3780:	00089d03          	lh	s10,0(a7)
    3784:	00469383          	lh	t2,4(a3)
    3788:	03028db3          	mul	s11,t0,a6
    378c:	008a0eb3          	add	t4,s4,s0
    3790:	000a1c03          	lh	s8,0(s4)
    3794:	00669e03          	lh	t3,6(a3)
    3798:	008e8533          	add	a0,t4,s0
    379c:	00869083          	lh	ra,8(a3)
    37a0:	000e9883          	lh	a7,0(t4)
    37a4:	00850733          	add	a4,a0,s0
    37a8:	00a69803          	lh	a6,10(a3)
    37ac:	00051283          	lh	t0,0(a0)
    37b0:	026c8cb3          	mul	s9,s9,t1
    37b4:	00c69a03          	lh	s4,12(a3)
    37b8:	008705b3          	add	a1,a4,s0
    37bc:	00071e83          	lh	t4,0(a4)
    37c0:	00059303          	lh	t1,0(a1)
    37c4:	00e69703          	lh	a4,14(a3)
    37c8:	01b787b3          	add	a5,a5,s11
    37cc:	01068693          	addi	a3,a3,16
    37d0:	008585b3          	add	a1,a1,s0
    37d4:	03a383b3          	mul	t2,t2,s10
    37d8:	01978d33          	add	s10,a5,s9
    37dc:	038e0e33          	mul	t3,t3,s8
    37e0:	007d0db3          	add	s11,s10,t2
    37e4:	03108c33          	mul	s8,ra,a7
    37e8:	01cd80b3          	add	ra,s11,t3
    37ec:	025808b3          	mul	a7,a6,t0
    37f0:	01808833          	add	a6,ra,s8
    37f4:	03da0533          	mul	a0,s4,t4
    37f8:	011802b3          	add	t0,a6,a7
    37fc:	02670a33          	mul	s4,a4,t1
    3800:	00a28cb3          	add	s9,t0,a0
    3804:	014c87b3          	add	a5,s9,s4
    3808:	f4d91ee3          	bne	s2,a3,3764 <matrix_mul_matrix+0x180>
    380c:	00ff2023          	sw	a5,0(t5)
    3810:	001f8693          	addi	a3,t6,1
    3814:	004f0f13          	addi	t5,t5,4
    3818:	00260613          	addi	a2,a2,2
    381c:	00da8663          	beq	s5,a3,3828 <matrix_mul_matrix+0x244>
    3820:	00068f93          	mv	t6,a3
    3824:	e45ff06f          	j	3668 <matrix_mul_matrix+0x84>
    3828:	001b8f13          	addi	t5,s7,1
    382c:	008989b3          	add	s3,s3,s0
    3830:	015b0b33          	add	s6,s6,s5
    3834:	00890933          	add	s2,s2,s0
    3838:	01fb8663          	beq	s7,t6,3844 <matrix_mul_matrix+0x260>
    383c:	000f0b93          	mv	s7,t5
    3840:	e05ff06f          	j	3644 <matrix_mul_matrix+0x60>
    3844:	04c12083          	lw	ra,76(sp)
    3848:	04812403          	lw	s0,72(sp)
    384c:	04412483          	lw	s1,68(sp)
    3850:	04012903          	lw	s2,64(sp)
    3854:	03c12983          	lw	s3,60(sp)
    3858:	03812a03          	lw	s4,56(sp)
    385c:	03412a83          	lw	s5,52(sp)
    3860:	03012b03          	lw	s6,48(sp)
    3864:	02c12b83          	lw	s7,44(sp)
    3868:	02812c03          	lw	s8,40(sp)
    386c:	02412c83          	lw	s9,36(sp)
    3870:	02012d03          	lw	s10,32(sp)
    3874:	01c12d83          	lw	s11,28(sp)
    3878:	05010113          	addi	sp,sp,80
    387c:	00008067          	ret

00003880 <matrix_mul_matrix_bitextract>:
    3880:	22050e63          	beqz	a0,3abc <matrix_mul_matrix_bitextract+0x23c>
    3884:	fd010113          	addi	sp,sp,-48
    3888:	01312e23          	sw	s3,28(sp)
    388c:	00151993          	slli	s3,a0,0x1
    3890:	02812423          	sw	s0,40(sp)
    3894:	02912223          	sw	s1,36(sp)
    3898:	03212023          	sw	s2,32(sp)
    389c:	01412c23          	sw	s4,24(sp)
    38a0:	01512a23          	sw	s5,20(sp)
    38a4:	01612823          	sw	s6,16(sp)
    38a8:	01712623          	sw	s7,12(sp)
    38ac:	01812423          	sw	s8,8(sp)
    38b0:	02112623          	sw	ra,44(sp)
    38b4:	00050b13          	mv	s6,a0
    38b8:	00058413          	mv	s0,a1
    38bc:	00068493          	mv	s1,a3
    38c0:	00060a93          	mv	s5,a2
    38c4:	01360a33          	add	s4,a2,s3
    38c8:	00251913          	slli	s2,a0,0x2
    38cc:	00000b93          	li	s7,0
    38d0:	00000c13          	li	s8,0
    38d4:	002b9813          	slli	a6,s7,0x2
    38d8:	01040533          	add	a0,s0,a6
    38dc:	00090613          	mv	a2,s2
    38e0:	00000593          	li	a1,0
    38e4:	568030ef          	jal	ra,6e4c <memset>
    38e8:	00050393          	mv	t2,a0
    38ec:	00048813          	mv	a6,s1
    38f0:	00000893          	li	a7,0
    38f4:	415a07b3          	sub	a5,s4,s5
    38f8:	ffe78093          	addi	ra,a5,-2
    38fc:	0010d293          	srli	t0,ra,0x1
    3900:	00128313          	addi	t1,t0,1
    3904:	00337613          	andi	a2,t1,3
    3908:	00080593          	mv	a1,a6
    390c:	000a8713          	mv	a4,s5
    3910:	00000e13          	li	t3,0
    3914:	08060c63          	beqz	a2,39ac <matrix_mul_matrix_bitextract+0x12c>
    3918:	00100693          	li	a3,1
    391c:	06d60063          	beq	a2,a3,397c <matrix_mul_matrix_bitextract+0xfc>
    3920:	00200e93          	li	t4,2
    3924:	03d60663          	beq	a2,t4,3950 <matrix_mul_matrix_bitextract+0xd0>
    3928:	000a9e03          	lh	t3,0(s5)
    392c:	00081f03          	lh	t5,0(a6)
    3930:	002a8713          	addi	a4,s5,2
    3934:	013805b3          	add	a1,a6,s3
    3938:	03ee0fb3          	mul	t6,t3,t5
    393c:	402fd513          	srai	a0,t6,0x2
    3940:	405fd793          	srai	a5,t6,0x5
    3944:	00f57093          	andi	ra,a0,15
    3948:	07f7f293          	andi	t0,a5,127
    394c:	02508e33          	mul	t3,ra,t0
    3950:	00071303          	lh	t1,0(a4)
    3954:	00059603          	lh	a2,0(a1)
    3958:	00270713          	addi	a4,a4,2
    395c:	013585b3          	add	a1,a1,s3
    3960:	02c30eb3          	mul	t4,t1,a2
    3964:	402ed693          	srai	a3,t4,0x2
    3968:	405edf13          	srai	t5,t4,0x5
    396c:	00f6ff93          	andi	t6,a3,15
    3970:	07ff7513          	andi	a0,t5,127
    3974:	02af87b3          	mul	a5,t6,a0
    3978:	00fe0e33          	add	t3,t3,a5
    397c:	00071083          	lh	ra,0(a4)
    3980:	00059283          	lh	t0,0(a1)
    3984:	00270713          	addi	a4,a4,2
    3988:	013585b3          	add	a1,a1,s3
    398c:	02508333          	mul	t1,ra,t0
    3990:	40235613          	srai	a2,t1,0x2
    3994:	40535e93          	srai	t4,t1,0x5
    3998:	00f67693          	andi	a3,a2,15
    399c:	07feff13          	andi	t5,t4,127
    39a0:	03e68fb3          	mul	t6,a3,t5
    39a4:	01fe0e33          	add	t3,t3,t6
    39a8:	0aea0663          	beq	s4,a4,3a54 <matrix_mul_matrix_bitextract+0x1d4>
    39ac:	01358533          	add	a0,a1,s3
    39b0:	00071083          	lh	ra,0(a4)
    39b4:	00059e83          	lh	t4,0(a1)
    39b8:	013507b3          	add	a5,a0,s3
    39bc:	00271303          	lh	t1,2(a4)
    39c0:	00051283          	lh	t0,0(a0)
    39c4:	00079f03          	lh	t5,0(a5)
    39c8:	013785b3          	add	a1,a5,s3
    39cc:	00471603          	lh	a2,4(a4)
    39d0:	03d08533          	mul	a0,ra,t4
    39d4:	00059f83          	lh	t6,0(a1)
    39d8:	00671683          	lh	a3,6(a4)
    39dc:	00870713          	addi	a4,a4,8
    39e0:	013585b3          	add	a1,a1,s3
    39e4:	025300b3          	mul	ra,t1,t0
    39e8:	40555e93          	srai	t4,a0,0x5
    39ec:	40255313          	srai	t1,a0,0x2
    39f0:	07fef293          	andi	t0,t4,127
    39f4:	00f37793          	andi	a5,t1,15
    39f8:	03e60633          	mul	a2,a2,t5
    39fc:	4050d513          	srai	a0,ra,0x5
    3a00:	4020df13          	srai	t5,ra,0x2
    3a04:	07f57313          	andi	t1,a0,127
    3a08:	00ff7093          	andi	ra,t5,15
    3a0c:	03f686b3          	mul	a3,a3,t6
    3a10:	40565e93          	srai	t4,a2,0x5
    3a14:	40265f93          	srai	t6,a2,0x2
    3a18:	00fff513          	andi	a0,t6,15
    3a1c:	07fef613          	andi	a2,t4,127
    3a20:	025787b3          	mul	a5,a5,t0
    3a24:	4056df13          	srai	t5,a3,0x5
    3a28:	4026d293          	srai	t0,a3,0x2
    3a2c:	00f2fe93          	andi	t4,t0,15
    3a30:	07ff7693          	andi	a3,t5,127
    3a34:	026080b3          	mul	ra,ra,t1
    3a38:	00fe0e33          	add	t3,t3,a5
    3a3c:	02c50333          	mul	t1,a0,a2
    3a40:	001e0fb3          	add	t6,t3,ra
    3a44:	02de8533          	mul	a0,t4,a3
    3a48:	006f8633          	add	a2,t6,t1
    3a4c:	00a60e33          	add	t3,a2,a0
    3a50:	f4ea1ee3          	bne	s4,a4,39ac <matrix_mul_matrix_bitextract+0x12c>
    3a54:	01c3a023          	sw	t3,0(t2)
    3a58:	00188713          	addi	a4,a7,1
    3a5c:	00438393          	addi	t2,t2,4
    3a60:	00280813          	addi	a6,a6,2
    3a64:	00eb0663          	beq	s6,a4,3a70 <matrix_mul_matrix_bitextract+0x1f0>
    3a68:	00070893          	mv	a7,a4
    3a6c:	e89ff06f          	j	38f4 <matrix_mul_matrix_bitextract+0x74>
    3a70:	001c0393          	addi	t2,s8,1
    3a74:	013a8ab3          	add	s5,s5,s3
    3a78:	016b8bb3          	add	s7,s7,s6
    3a7c:	013a0a33          	add	s4,s4,s3
    3a80:	011c0663          	beq	s8,a7,3a8c <matrix_mul_matrix_bitextract+0x20c>
    3a84:	00038c13          	mv	s8,t2
    3a88:	e4dff06f          	j	38d4 <matrix_mul_matrix_bitextract+0x54>
    3a8c:	02c12083          	lw	ra,44(sp)
    3a90:	02812403          	lw	s0,40(sp)
    3a94:	02412483          	lw	s1,36(sp)
    3a98:	02012903          	lw	s2,32(sp)
    3a9c:	01c12983          	lw	s3,28(sp)
    3aa0:	01812a03          	lw	s4,24(sp)
    3aa4:	01412a83          	lw	s5,20(sp)
    3aa8:	01012b03          	lw	s6,16(sp)
    3aac:	00c12b83          	lw	s7,12(sp)
    3ab0:	00812c03          	lw	s8,8(sp)
    3ab4:	03010113          	addi	sp,sp,48
    3ab8:	00008067          	ret
    3abc:	00008067          	ret

00003ac0 <matrix_test>:
    3ac0:	fd010113          	addi	sp,sp,-48
    3ac4:	02812423          	sw	s0,40(sp)
    3ac8:	01312e23          	sw	s3,28(sp)
    3acc:	01412c23          	sw	s4,24(sp)
    3ad0:	01612823          	sw	s6,16(sp)
    3ad4:	fffff437          	lui	s0,0xfffff
    3ad8:	02112623          	sw	ra,44(sp)
    3adc:	02912223          	sw	s1,36(sp)
    3ae0:	03212023          	sw	s2,32(sp)
    3ae4:	01512a23          	sw	s5,20(sp)
    3ae8:	01712623          	sw	s7,12(sp)
    3aec:	01812423          	sw	s8,8(sp)
    3af0:	01912223          	sw	s9,4(sp)
    3af4:	01a12023          	sw	s10,0(sp)
    3af8:	00058993          	mv	s3,a1
    3afc:	00060a13          	mv	s4,a2
    3b00:	00068b13          	mv	s6,a3
    3b04:	00876433          	or	s0,a4,s0
    3b08:	00051463          	bnez	a0,3b10 <matrix_test+0x50>
    3b0c:	30c0106f          	j	4e18 <matrix_test+0x1358>
    3b10:	00151813          	slli	a6,a0,0x1
    3b14:	00c805b3          	add	a1,a6,a2
    3b18:	40a00c33          	neg	s8,a0
    3b1c:	01071093          	slli	ra,a4,0x10
    3b20:	00050f13          	mv	t5,a0
    3b24:	0100d913          	srli	s2,ra,0x10
    3b28:	00058693          	mv	a3,a1
    3b2c:	00000b93          	li	s7,0
    3b30:	002c1c13          	slli	s8,s8,0x2
    3b34:	41068633          	sub	a2,a3,a6
    3b38:	40c687b3          	sub	a5,a3,a2
    3b3c:	ffe78293          	addi	t0,a5,-2
    3b40:	0012d313          	srli	t1,t0,0x1
    3b44:	00130393          	addi	t2,t1,1
    3b48:	0073f893          	andi	a7,t2,7
    3b4c:	00060293          	mv	t0,a2
    3b50:	0a088463          	beqz	a7,3bf8 <matrix_test+0x138>
    3b54:	00100513          	li	a0,1
    3b58:	08a88663          	beq	a7,a0,3be4 <matrix_test+0x124>
    3b5c:	00200c93          	li	s9,2
    3b60:	07988a63          	beq	a7,s9,3bd4 <matrix_test+0x114>
    3b64:	00300d13          	li	s10,3
    3b68:	05a88e63          	beq	a7,s10,3bc4 <matrix_test+0x104>
    3b6c:	00400e13          	li	t3,4
    3b70:	05c88263          	beq	a7,t3,3bb4 <matrix_test+0xf4>
    3b74:	00500e93          	li	t4,5
    3b78:	03d88663          	beq	a7,t4,3ba4 <matrix_test+0xe4>
    3b7c:	00600f93          	li	t6,6
    3b80:	01f88a63          	beq	a7,t6,3b94 <matrix_test+0xd4>
    3b84:	00065483          	lhu	s1,0(a2)
    3b88:	00260293          	addi	t0,a2,2
    3b8c:	00990ab3          	add	s5,s2,s1
    3b90:	01561023          	sh	s5,0(a2)
    3b94:	0002d083          	lhu	ra,0(t0)
    3b98:	00228293          	addi	t0,t0,2
    3b9c:	001907b3          	add	a5,s2,ra
    3ba0:	fef29f23          	sh	a5,-2(t0)
    3ba4:	0002d303          	lhu	t1,0(t0)
    3ba8:	00228293          	addi	t0,t0,2
    3bac:	006903b3          	add	t2,s2,t1
    3bb0:	fe729f23          	sh	t2,-2(t0)
    3bb4:	0002d883          	lhu	a7,0(t0)
    3bb8:	00228293          	addi	t0,t0,2
    3bbc:	01190533          	add	a0,s2,a7
    3bc0:	fea29f23          	sh	a0,-2(t0)
    3bc4:	0002dc83          	lhu	s9,0(t0)
    3bc8:	00228293          	addi	t0,t0,2
    3bcc:	01990d33          	add	s10,s2,s9
    3bd0:	ffa29f23          	sh	s10,-2(t0)
    3bd4:	0002de03          	lhu	t3,0(t0)
    3bd8:	00228293          	addi	t0,t0,2
    3bdc:	01c90eb3          	add	t4,s2,t3
    3be0:	ffd29f23          	sh	t4,-2(t0)
    3be4:	0002df83          	lhu	t6,0(t0)
    3be8:	00228293          	addi	t0,t0,2
    3bec:	01f904b3          	add	s1,s2,t6
    3bf0:	fe929f23          	sh	s1,-2(t0)
    3bf4:	06d28663          	beq	t0,a3,3c60 <matrix_test+0x1a0>
    3bf8:	0002da83          	lhu	s5,0(t0)
    3bfc:	0022d083          	lhu	ra,2(t0)
    3c00:	0042d503          	lhu	a0,4(t0)
    3c04:	0062dc83          	lhu	s9,6(t0)
    3c08:	0082dd03          	lhu	s10,8(t0)
    3c0c:	00a2d303          	lhu	t1,10(t0)
    3c10:	00c2d883          	lhu	a7,12(t0)
    3c14:	00e2d783          	lhu	a5,14(t0)
    3c18:	015903b3          	add	t2,s2,s5
    3c1c:	00190fb3          	add	t6,s2,ra
    3c20:	00a904b3          	add	s1,s2,a0
    3c24:	01990eb3          	add	t4,s2,s9
    3c28:	01a90e33          	add	t3,s2,s10
    3c2c:	00690ab3          	add	s5,s2,t1
    3c30:	011900b3          	add	ra,s2,a7
    3c34:	00f90533          	add	a0,s2,a5
    3c38:	00729023          	sh	t2,0(t0)
    3c3c:	01f29123          	sh	t6,2(t0)
    3c40:	00929223          	sh	s1,4(t0)
    3c44:	01d29323          	sh	t4,6(t0)
    3c48:	01c29423          	sh	t3,8(t0)
    3c4c:	01529523          	sh	s5,10(t0)
    3c50:	00129623          	sh	ra,12(t0)
    3c54:	00a29723          	sh	a0,14(t0)
    3c58:	01028293          	addi	t0,t0,16
    3c5c:	f8d29ee3          	bne	t0,a3,3bf8 <matrix_test+0x138>
    3c60:	001b8493          	addi	s1,s7,1
    3c64:	418606b3          	sub	a3,a2,s8
    3c68:	009f0663          	beq	t5,s1,3c74 <matrix_test+0x1b4>
    3c6c:	00048b93          	mv	s7,s1
    3c70:	ec5ff06f          	j	3b34 <matrix_test+0x74>
    3c74:	00000e13          	li	t3,0
    3c78:	00000e93          	li	t4,0
    3c7c:	41058cb3          	sub	s9,a1,a6
    3c80:	41958633          	sub	a2,a1,s9
    3c84:	ffe60293          	addi	t0,a2,-2
    3c88:	0012df13          	srli	t5,t0,0x1
    3c8c:	001f0d13          	addi	s10,t5,1
    3c90:	002e1313          	slli	t1,t3,0x2
    3c94:	007d7393          	andi	t2,s10,7
    3c98:	013307b3          	add	a5,t1,s3
    3c9c:	000c8693          	mv	a3,s9
    3ca0:	0c038263          	beqz	t2,3d64 <matrix_test+0x2a4>
    3ca4:	00100893          	li	a7,1
    3ca8:	0b138263          	beq	t2,a7,3d4c <matrix_test+0x28c>
    3cac:	00200f93          	li	t6,2
    3cb0:	09f38463          	beq	t2,t6,3d38 <matrix_test+0x278>
    3cb4:	00300a93          	li	s5,3
    3cb8:	07538663          	beq	t2,s5,3d24 <matrix_test+0x264>
    3cbc:	00400093          	li	ra,4
    3cc0:	04138863          	beq	t2,ra,3d10 <matrix_test+0x250>
    3cc4:	00500513          	li	a0,5
    3cc8:	02a38a63          	beq	t2,a0,3cfc <matrix_test+0x23c>
    3ccc:	00600613          	li	a2,6
    3cd0:	00c38c63          	beq	t2,a2,3ce8 <matrix_test+0x228>
    3cd4:	000c9283          	lh	t0,0(s9)
    3cd8:	002c8693          	addi	a3,s9,2
    3cdc:	00478793          	addi	a5,a5,4
    3ce0:	02e28f33          	mul	t5,t0,a4
    3ce4:	ffe7ae23          	sw	t5,-4(a5)
    3ce8:	00069d03          	lh	s10,0(a3)
    3cec:	00478793          	addi	a5,a5,4
    3cf0:	00268693          	addi	a3,a3,2
    3cf4:	02ed0333          	mul	t1,s10,a4
    3cf8:	fe67ae23          	sw	t1,-4(a5)
    3cfc:	00069383          	lh	t2,0(a3)
    3d00:	00478793          	addi	a5,a5,4
    3d04:	00268693          	addi	a3,a3,2
    3d08:	02e388b3          	mul	a7,t2,a4
    3d0c:	ff17ae23          	sw	a7,-4(a5)
    3d10:	00069f83          	lh	t6,0(a3)
    3d14:	00478793          	addi	a5,a5,4
    3d18:	00268693          	addi	a3,a3,2
    3d1c:	02ef8ab3          	mul	s5,t6,a4
    3d20:	ff57ae23          	sw	s5,-4(a5)
    3d24:	00069083          	lh	ra,0(a3)
    3d28:	00478793          	addi	a5,a5,4
    3d2c:	00268693          	addi	a3,a3,2
    3d30:	02e08533          	mul	a0,ra,a4
    3d34:	fea7ae23          	sw	a0,-4(a5)
    3d38:	00069603          	lh	a2,0(a3)
    3d3c:	00478793          	addi	a5,a5,4
    3d40:	00268693          	addi	a3,a3,2
    3d44:	02e602b3          	mul	t0,a2,a4
    3d48:	fe57ae23          	sw	t0,-4(a5)
    3d4c:	00069f03          	lh	t5,0(a3)
    3d50:	00478793          	addi	a5,a5,4
    3d54:	00268693          	addi	a3,a3,2
    3d58:	02ef0d33          	mul	s10,t5,a4
    3d5c:	ffa7ae23          	sw	s10,-4(a5)
    3d60:	06b68863          	beq	a3,a1,3dd0 <matrix_test+0x310>
    3d64:	00069a83          	lh	s5,0(a3)
    3d68:	00269383          	lh	t2,2(a3)
    3d6c:	00469083          	lh	ra,4(a3)
    3d70:	00669f83          	lh	t6,6(a3)
    3d74:	00869503          	lh	a0,8(a3)
    3d78:	00a69303          	lh	t1,10(a3)
    3d7c:	00c69883          	lh	a7,12(a3)
    3d80:	00e69603          	lh	a2,14(a3)
    3d84:	02ea82b3          	mul	t0,s5,a4
    3d88:	01068693          	addi	a3,a3,16
    3d8c:	02078793          	addi	a5,a5,32
    3d90:	02e38f33          	mul	t5,t2,a4
    3d94:	fe57a023          	sw	t0,-32(a5)
    3d98:	02e08d33          	mul	s10,ra,a4
    3d9c:	ffe7a223          	sw	t5,-28(a5)
    3da0:	02ef8ab3          	mul	s5,t6,a4
    3da4:	ffa7a423          	sw	s10,-24(a5)
    3da8:	02e503b3          	mul	t2,a0,a4
    3dac:	ff57a623          	sw	s5,-20(a5)
    3db0:	02e300b3          	mul	ra,t1,a4
    3db4:	fe77a823          	sw	t2,-16(a5)
    3db8:	02e88fb3          	mul	t6,a7,a4
    3dbc:	fe17aa23          	sw	ra,-12(a5)
    3dc0:	02e60533          	mul	a0,a2,a4
    3dc4:	fff7ac23          	sw	t6,-8(a5)
    3dc8:	fea7ae23          	sw	a0,-4(a5)
    3dcc:	f8b69ce3          	bne	a3,a1,3d64 <matrix_test+0x2a4>
    3dd0:	001e8693          	addi	a3,t4,1
    3dd4:	009e0e33          	add	t3,t3,s1
    3dd8:	418c85b3          	sub	a1,s9,s8
    3ddc:	017e8663          	beq	t4,s7,3de8 <matrix_test+0x328>
    3de0:	00068e93          	mv	t4,a3
    3de4:	e99ff06f          	j	3c7c <matrix_test+0x1bc>
    3de8:	41898ab3          	sub	s5,s3,s8
    3dec:	40900eb3          	neg	t4,s1
    3df0:	000a8713          	mv	a4,s5
    3df4:	00000513          	li	a0,0
    3df8:	00000813          	li	a6,0
    3dfc:	00000593          	li	a1,0
    3e00:	00000613          	li	a2,0
    3e04:	003e9c93          	slli	s9,t4,0x3
    3e08:	018702b3          	add	t0,a4,s8
    3e0c:	405707b3          	sub	a5,a4,t0
    3e10:	ffc78313          	addi	t1,a5,-4
    3e14:	00235893          	srli	a7,t1,0x2
    3e18:	00188f13          	addi	t5,a7,1
    3e1c:	007f7d13          	andi	s10,t5,7
    3e20:	00028793          	mv	a5,t0
    3e24:	280d0c63          	beqz	s10,40bc <matrix_test+0x5fc>
    3e28:	00100393          	li	t2,1
    3e2c:	127d0a63          	beq	s10,t2,3f60 <matrix_test+0x4a0>
    3e30:	00200093          	li	ra,2
    3e34:	101d0063          	beq	s10,ra,3f34 <matrix_test+0x474>
    3e38:	00300f93          	li	t6,3
    3e3c:	0dfd0663          	beq	s10,t6,3f08 <matrix_test+0x448>
    3e40:	00400693          	li	a3,4
    3e44:	08dd0c63          	beq	s10,a3,3edc <matrix_test+0x41c>
    3e48:	00500e13          	li	t3,5
    3e4c:	07cd0263          	beq	s10,t3,3eb0 <matrix_test+0x3f0>
    3e50:	00600e93          	li	t4,6
    3e54:	03dd0863          	beq	s10,t4,3e84 <matrix_test+0x3c4>
    3e58:	00080793          	mv	a5,a6
    3e5c:	0002a803          	lw	a6,0(t0)
    3e60:	01051513          	slli	a0,a0,0x10
    3e64:	01055313          	srli	t1,a0,0x10
    3e68:	010585b3          	add	a1,a1,a6
    3e6c:	78b442e3          	blt	s0,a1,4df0 <matrix_test+0x1330>
    3e70:	0107a8b3          	slt	a7,a5,a6
    3e74:	01130f33          	add	t5,t1,a7
    3e78:	010f1d13          	slli	s10,t5,0x10
    3e7c:	410d5513          	srai	a0,s10,0x10
    3e80:	00428793          	addi	a5,t0,4
    3e84:	00080093          	mv	ra,a6
    3e88:	0007a803          	lw	a6,0(a5)
    3e8c:	01051f93          	slli	t6,a0,0x10
    3e90:	010fd693          	srli	a3,t6,0x10
    3e94:	010585b3          	add	a1,a1,a6
    3e98:	3ab44863          	blt	s0,a1,4248 <matrix_test+0x788>
    3e9c:	0100ae33          	slt	t3,ra,a6
    3ea0:	01c68eb3          	add	t4,a3,t3
    3ea4:	010e9513          	slli	a0,t4,0x10
    3ea8:	41055513          	srai	a0,a0,0x10
    3eac:	00478793          	addi	a5,a5,4
    3eb0:	00080f13          	mv	t5,a6
    3eb4:	0007a803          	lw	a6,0(a5)
    3eb8:	01051d13          	slli	s10,a0,0x10
    3ebc:	010d5393          	srli	t2,s10,0x10
    3ec0:	010585b3          	add	a1,a1,a6
    3ec4:	36b44863          	blt	s0,a1,4234 <matrix_test+0x774>
    3ec8:	010f20b3          	slt	ra,t5,a6
    3ecc:	00138fb3          	add	t6,t2,ra
    3ed0:	010f9693          	slli	a3,t6,0x10
    3ed4:	4106d513          	srai	a0,a3,0x10
    3ed8:	00478793          	addi	a5,a5,4
    3edc:	00080e93          	mv	t4,a6
    3ee0:	0007a803          	lw	a6,0(a5)
    3ee4:	01051513          	slli	a0,a0,0x10
    3ee8:	01055313          	srli	t1,a0,0x10
    3eec:	010585b3          	add	a1,a1,a6
    3ef0:	32b44863          	blt	s0,a1,4220 <matrix_test+0x760>
    3ef4:	010ea8b3          	slt	a7,t4,a6
    3ef8:	01130f33          	add	t5,t1,a7
    3efc:	010f1d13          	slli	s10,t5,0x10
    3f00:	410d5513          	srai	a0,s10,0x10
    3f04:	00478793          	addi	a5,a5,4
    3f08:	00080f93          	mv	t6,a6
    3f0c:	0007a803          	lw	a6,0(a5)
    3f10:	01051693          	slli	a3,a0,0x10
    3f14:	0106de13          	srli	t3,a3,0x10
    3f18:	010585b3          	add	a1,a1,a6
    3f1c:	2eb44863          	blt	s0,a1,420c <matrix_test+0x74c>
    3f20:	010faeb3          	slt	t4,t6,a6
    3f24:	01de0533          	add	a0,t3,t4
    3f28:	01051313          	slli	t1,a0,0x10
    3f2c:	41035513          	srai	a0,t1,0x10
    3f30:	00478793          	addi	a5,a5,4
    3f34:	00080f13          	mv	t5,a6
    3f38:	0007a803          	lw	a6,0(a5)
    3f3c:	01051d13          	slli	s10,a0,0x10
    3f40:	010d5393          	srli	t2,s10,0x10
    3f44:	010585b3          	add	a1,a1,a6
    3f48:	2ab44863          	blt	s0,a1,41f8 <matrix_test+0x738>
    3f4c:	010f20b3          	slt	ra,t5,a6
    3f50:	00138fb3          	add	t6,t2,ra
    3f54:	010f9693          	slli	a3,t6,0x10
    3f58:	4106d513          	srai	a0,a3,0x10
    3f5c:	00478793          	addi	a5,a5,4
    3f60:	00080313          	mv	t1,a6
    3f64:	0007a803          	lw	a6,0(a5)
    3f68:	01051513          	slli	a0,a0,0x10
    3f6c:	01055f13          	srli	t5,a0,0x10
    3f70:	010585b3          	add	a1,a1,a6
    3f74:	26b44863          	blt	s0,a1,41e4 <matrix_test+0x724>
    3f78:	010328b3          	slt	a7,t1,a6
    3f7c:	011f0d33          	add	s10,t5,a7
    3f80:	010d1393          	slli	t2,s10,0x10
    3f84:	4103d513          	srai	a0,t2,0x10
    3f88:	00478793          	addi	a5,a5,4
    3f8c:	12f71863          	bne	a4,a5,40bc <matrix_test+0x5fc>
    3f90:	00160e13          	addi	t3,a2,1
    3f94:	41928733          	sub	a4,t0,s9
    3f98:	2d760263          	beq	a2,s7,425c <matrix_test+0x79c>
    3f9c:	000e0613          	mv	a2,t3
    3fa0:	e69ff06f          	j	3e08 <matrix_test+0x348>
    3fa4:	0047a383          	lw	t2,4(a5)
    3fa8:	00ae0893          	addi	a7,t3,10
    3fac:	01089d13          	slli	s10,a7,0x10
    3fb0:	410d5f13          	srai	t5,s10,0x10
    3fb4:	00000e93          	li	t4,0
    3fb8:	010f1593          	slli	a1,t5,0x10
    3fbc:	007e8f33          	add	t5,t4,t2
    3fc0:	00478793          	addi	a5,a5,4
    3fc4:	0105d093          	srli	ra,a1,0x10
    3fc8:	13e45863          	bge	s0,t5,40f8 <matrix_test+0x638>
    3fcc:	00a08e93          	addi	t4,ra,10
    3fd0:	0047a883          	lw	a7,4(a5)
    3fd4:	010e9813          	slli	a6,t4,0x10
    3fd8:	41085313          	srai	t1,a6,0x10
    3fdc:	00000f13          	li	t5,0
    3fe0:	01031513          	slli	a0,t1,0x10
    3fe4:	011f0eb3          	add	t4,t5,a7
    3fe8:	01055d13          	srli	s10,a0,0x10
    3fec:	13d44863          	blt	s0,t4,411c <matrix_test+0x65c>
    3ff0:	0113a3b3          	slt	t2,t2,a7
    3ff4:	0087a803          	lw	a6,8(a5)
    3ff8:	007d00b3          	add	ra,s10,t2
    3ffc:	01009f93          	slli	t6,ra,0x10
    4000:	410fde13          	srai	t3,t6,0x10
    4004:	010e1313          	slli	t1,t3,0x10
    4008:	010e85b3          	add	a1,t4,a6
    400c:	01035f13          	srli	t5,t1,0x10
    4010:	12b44863          	blt	s0,a1,4140 <matrix_test+0x680>
    4014:	0108a8b3          	slt	a7,a7,a6
    4018:	00c7a683          	lw	a3,12(a5)
    401c:	011f0533          	add	a0,t5,a7
    4020:	01051d13          	slli	s10,a0,0x10
    4024:	410d5f93          	srai	t6,s10,0x10
    4028:	010f9e13          	slli	t3,t6,0x10
    402c:	00d583b3          	add	t2,a1,a3
    4030:	010e5e93          	srli	t4,t3,0x10
    4034:	12744863          	blt	s0,t2,4164 <matrix_test+0x6a4>
    4038:	00d82833          	slt	a6,a6,a3
    403c:	0107a083          	lw	ra,16(a5)
    4040:	010e8333          	add	t1,t4,a6
    4044:	01031f13          	slli	t5,t1,0x10
    4048:	410f5d13          	srai	s10,t5,0x10
    404c:	010d1f93          	slli	t6,s10,0x10
    4050:	00138d33          	add	s10,t2,ra
    4054:	010fde13          	srli	t3,t6,0x10
    4058:	13a44863          	blt	s0,s10,4188 <matrix_test+0x6c8>
    405c:	0016a6b3          	slt	a3,a3,ra
    4060:	0147a883          	lw	a7,20(a5)
    4064:	00de0eb3          	add	t4,t3,a3
    4068:	010e9813          	slli	a6,t4,0x10
    406c:	41085f13          	srai	t5,a6,0x10
    4070:	010f1513          	slli	a0,t5,0x10
    4074:	011d05b3          	add	a1,s10,a7
    4078:	01055393          	srli	t2,a0,0x10
    407c:	12b44863          	blt	s0,a1,41ac <matrix_test+0x6ec>
    4080:	0110a0b3          	slt	ra,ra,a7
    4084:	0187a803          	lw	a6,24(a5)
    4088:	00138fb3          	add	t6,t2,ra
    408c:	010f9e13          	slli	t3,t6,0x10
    4090:	410e5313          	srai	t1,t3,0x10
    4094:	01031f13          	slli	t5,t1,0x10
    4098:	010585b3          	add	a1,a1,a6
    409c:	010f5d13          	srli	s10,t5,0x10
    40a0:	12b44863          	blt	s0,a1,41d0 <matrix_test+0x710>
    40a4:	0108a8b3          	slt	a7,a7,a6
    40a8:	011d0533          	add	a0,s10,a7
    40ac:	01051393          	slli	t2,a0,0x10
    40b0:	4103d513          	srai	a0,t2,0x10
    40b4:	01c78793          	addi	a5,a5,28
    40b8:	ecf70ce3          	beq	a4,a5,3f90 <matrix_test+0x4d0>
    40bc:	0007af83          	lw	t6,0(a5)
    40c0:	01051693          	slli	a3,a0,0x10
    40c4:	0106de13          	srli	t3,a3,0x10
    40c8:	01f58eb3          	add	t4,a1,t6
    40cc:	edd44ce3          	blt	s0,t4,3fa4 <matrix_test+0x4e4>
    40d0:	01f82833          	slt	a6,a6,t6
    40d4:	0047a383          	lw	t2,4(a5)
    40d8:	010e0333          	add	t1,t3,a6
    40dc:	01031513          	slli	a0,t1,0x10
    40e0:	41055f13          	srai	t5,a0,0x10
    40e4:	010f1593          	slli	a1,t5,0x10
    40e8:	007e8f33          	add	t5,t4,t2
    40ec:	00478793          	addi	a5,a5,4
    40f0:	0105d093          	srli	ra,a1,0x10
    40f4:	ede44ce3          	blt	s0,t5,3fcc <matrix_test+0x50c>
    40f8:	007fafb3          	slt	t6,t6,t2
    40fc:	0047a883          	lw	a7,4(a5)
    4100:	01f086b3          	add	a3,ra,t6
    4104:	01069e13          	slli	t3,a3,0x10
    4108:	410e5313          	srai	t1,t3,0x10
    410c:	01031513          	slli	a0,t1,0x10
    4110:	011f0eb3          	add	t4,t5,a7
    4114:	01055d13          	srli	s10,a0,0x10
    4118:	edd45ce3          	bge	s0,t4,3ff0 <matrix_test+0x530>
    411c:	00ad0593          	addi	a1,s10,10
    4120:	0087a803          	lw	a6,8(a5)
    4124:	01059693          	slli	a3,a1,0x10
    4128:	4106de13          	srai	t3,a3,0x10
    412c:	00000e93          	li	t4,0
    4130:	010e1313          	slli	t1,t3,0x10
    4134:	010e85b3          	add	a1,t4,a6
    4138:	01035f13          	srli	t5,t1,0x10
    413c:	ecb45ce3          	bge	s0,a1,4014 <matrix_test+0x554>
    4140:	00af0393          	addi	t2,t5,10
    4144:	00c7a683          	lw	a3,12(a5)
    4148:	01039093          	slli	ra,t2,0x10
    414c:	4100df93          	srai	t6,ra,0x10
    4150:	00000593          	li	a1,0
    4154:	010f9e13          	slli	t3,t6,0x10
    4158:	00d583b3          	add	t2,a1,a3
    415c:	010e5e93          	srli	t4,t3,0x10
    4160:	ec745ce3          	bge	s0,t2,4038 <matrix_test+0x578>
    4164:	0107a083          	lw	ra,16(a5)
    4168:	00ae8893          	addi	a7,t4,10
    416c:	01089513          	slli	a0,a7,0x10
    4170:	41055d13          	srai	s10,a0,0x10
    4174:	00000393          	li	t2,0
    4178:	010d1f93          	slli	t6,s10,0x10
    417c:	00138d33          	add	s10,t2,ra
    4180:	010fde13          	srli	t3,t6,0x10
    4184:	eda45ce3          	bge	s0,s10,405c <matrix_test+0x59c>
    4188:	00ae0593          	addi	a1,t3,10
    418c:	0147a883          	lw	a7,20(a5)
    4190:	01059313          	slli	t1,a1,0x10
    4194:	41035f13          	srai	t5,t1,0x10
    4198:	00000d13          	li	s10,0
    419c:	010f1513          	slli	a0,t5,0x10
    41a0:	011d05b3          	add	a1,s10,a7
    41a4:	01055393          	srli	t2,a0,0x10
    41a8:	ecb45ce3          	bge	s0,a1,4080 <matrix_test+0x5c0>
    41ac:	0187a803          	lw	a6,24(a5)
    41b0:	00a38693          	addi	a3,t2,10
    41b4:	01069e93          	slli	t4,a3,0x10
    41b8:	410ed313          	srai	t1,t4,0x10
    41bc:	00000593          	li	a1,0
    41c0:	01031f13          	slli	t5,t1,0x10
    41c4:	010585b3          	add	a1,a1,a6
    41c8:	010f5d13          	srli	s10,t5,0x10
    41cc:	ecb45ce3          	bge	s0,a1,40a4 <matrix_test+0x5e4>
    41d0:	00ad0093          	addi	ra,s10,10
    41d4:	01009f93          	slli	t6,ra,0x10
    41d8:	410fd513          	srai	a0,t6,0x10
    41dc:	00000593          	li	a1,0
    41e0:	ed5ff06f          	j	40b4 <matrix_test+0x5f4>
    41e4:	00af0593          	addi	a1,t5,10
    41e8:	01059093          	slli	ra,a1,0x10
    41ec:	4100d513          	srai	a0,ra,0x10
    41f0:	00000593          	li	a1,0
    41f4:	d95ff06f          	j	3f88 <matrix_test+0x4c8>
    41f8:	00a38e13          	addi	t3,t2,10
    41fc:	010e1e93          	slli	t4,t3,0x10
    4200:	410ed513          	srai	a0,t4,0x10
    4204:	00000593          	li	a1,0
    4208:	d55ff06f          	j	3f5c <matrix_test+0x49c>
    420c:	00ae0593          	addi	a1,t3,10
    4210:	01059893          	slli	a7,a1,0x10
    4214:	4108d513          	srai	a0,a7,0x10
    4218:	00000593          	li	a1,0
    421c:	d15ff06f          	j	3f30 <matrix_test+0x470>
    4220:	00a30393          	addi	t2,t1,10
    4224:	01039093          	slli	ra,t2,0x10
    4228:	4100d513          	srai	a0,ra,0x10
    422c:	00000593          	li	a1,0
    4230:	cd5ff06f          	j	3f04 <matrix_test+0x444>
    4234:	00a38593          	addi	a1,t2,10
    4238:	01059e13          	slli	t3,a1,0x10
    423c:	410e5513          	srai	a0,t3,0x10
    4240:	00000593          	li	a1,0
    4244:	c95ff06f          	j	3ed8 <matrix_test+0x418>
    4248:	00a68313          	addi	t1,a3,10
    424c:	01031893          	slli	a7,t1,0x10
    4250:	4108d513          	srai	a0,a7,0x10
    4254:	00000593          	li	a1,0
    4258:	c55ff06f          	j	3eac <matrix_test+0x3ec>
    425c:	00000593          	li	a1,0
    4260:	b35fd0ef          	jal	ra,1d94 <crc16>
    4264:	000a0613          	mv	a2,s4
    4268:	00098593          	mv	a1,s3
    426c:	00050d13          	mv	s10,a0
    4270:	000b0693          	mv	a3,s6
    4274:	00048513          	mv	a0,s1
    4278:	930ff0ef          	jal	ra,33a8 <matrix_mul_vect>
    427c:	00000513          	li	a0,0
    4280:	00000813          	li	a6,0
    4284:	00000593          	li	a1,0
    4288:	00000613          	li	a2,0
    428c:	018a82b3          	add	t0,s5,s8
    4290:	405a86b3          	sub	a3,s5,t0
    4294:	ffc68e93          	addi	t4,a3,-4
    4298:	002ed313          	srli	t1,t4,0x2
    429c:	00130f13          	addi	t5,t1,1
    42a0:	007f7393          	andi	t2,t5,7
    42a4:	00028713          	mv	a4,t0
    42a8:	28038c63          	beqz	t2,4540 <matrix_test+0xa80>
    42ac:	00100893          	li	a7,1
    42b0:	13138a63          	beq	t2,a7,43e4 <matrix_test+0x924>
    42b4:	00200093          	li	ra,2
    42b8:	10138063          	beq	t2,ra,43b8 <matrix_test+0x8f8>
    42bc:	00300f93          	li	t6,3
    42c0:	0df38663          	beq	t2,t6,438c <matrix_test+0x8cc>
    42c4:	00400793          	li	a5,4
    42c8:	08f38c63          	beq	t2,a5,4360 <matrix_test+0x8a0>
    42cc:	00500e13          	li	t3,5
    42d0:	07c38263          	beq	t2,t3,4334 <matrix_test+0x874>
    42d4:	00600693          	li	a3,6
    42d8:	02d38863          	beq	t2,a3,4308 <matrix_test+0x848>
    42dc:	00080713          	mv	a4,a6
    42e0:	0002a803          	lw	a6,0(t0)
    42e4:	01051513          	slli	a0,a0,0x10
    42e8:	01055e93          	srli	t4,a0,0x10
    42ec:	010585b3          	add	a1,a1,a6
    42f0:	30b44ae3          	blt	s0,a1,4e04 <matrix_test+0x1344>
    42f4:	01072333          	slt	t1,a4,a6
    42f8:	006e8f33          	add	t5,t4,t1
    42fc:	010f1393          	slli	t2,t5,0x10
    4300:	4103d513          	srai	a0,t2,0x10
    4304:	00428713          	addi	a4,t0,4
    4308:	00080093          	mv	ra,a6
    430c:	00072803          	lw	a6,0(a4)
    4310:	01051f93          	slli	t6,a0,0x10
    4314:	010fde13          	srli	t3,t6,0x10
    4318:	010585b3          	add	a1,a1,a6
    431c:	3ab44863          	blt	s0,a1,46cc <matrix_test+0xc0c>
    4320:	0100a7b3          	slt	a5,ra,a6
    4324:	00fe06b3          	add	a3,t3,a5
    4328:	01069513          	slli	a0,a3,0x10
    432c:	41055513          	srai	a0,a0,0x10
    4330:	00470713          	addi	a4,a4,4
    4334:	00080f13          	mv	t5,a6
    4338:	00072803          	lw	a6,0(a4)
    433c:	01051393          	slli	t2,a0,0x10
    4340:	0103d893          	srli	a7,t2,0x10
    4344:	010585b3          	add	a1,a1,a6
    4348:	36b44863          	blt	s0,a1,46b8 <matrix_test+0xbf8>
    434c:	010f20b3          	slt	ra,t5,a6
    4350:	00188fb3          	add	t6,a7,ra
    4354:	010f9e13          	slli	t3,t6,0x10
    4358:	410e5513          	srai	a0,t3,0x10
    435c:	00470713          	addi	a4,a4,4
    4360:	00080693          	mv	a3,a6
    4364:	00072803          	lw	a6,0(a4)
    4368:	01051513          	slli	a0,a0,0x10
    436c:	01055e93          	srli	t4,a0,0x10
    4370:	010585b3          	add	a1,a1,a6
    4374:	32b44863          	blt	s0,a1,46a4 <matrix_test+0xbe4>
    4378:	0106a333          	slt	t1,a3,a6
    437c:	006e8f33          	add	t5,t4,t1
    4380:	010f1393          	slli	t2,t5,0x10
    4384:	4103d513          	srai	a0,t2,0x10
    4388:	00470713          	addi	a4,a4,4
    438c:	00080f93          	mv	t6,a6
    4390:	00072803          	lw	a6,0(a4)
    4394:	01051e13          	slli	t3,a0,0x10
    4398:	010e5693          	srli	a3,t3,0x10
    439c:	010585b3          	add	a1,a1,a6
    43a0:	2eb44863          	blt	s0,a1,4690 <matrix_test+0xbd0>
    43a4:	010fa7b3          	slt	a5,t6,a6
    43a8:	00f68533          	add	a0,a3,a5
    43ac:	01051e93          	slli	t4,a0,0x10
    43b0:	410ed513          	srai	a0,t4,0x10
    43b4:	00470713          	addi	a4,a4,4
    43b8:	00080f13          	mv	t5,a6
    43bc:	00072803          	lw	a6,0(a4)
    43c0:	01051393          	slli	t2,a0,0x10
    43c4:	0103d893          	srli	a7,t2,0x10
    43c8:	010585b3          	add	a1,a1,a6
    43cc:	2ab44863          	blt	s0,a1,467c <matrix_test+0xbbc>
    43d0:	010f20b3          	slt	ra,t5,a6
    43d4:	00188fb3          	add	t6,a7,ra
    43d8:	010f9e13          	slli	t3,t6,0x10
    43dc:	410e5513          	srai	a0,t3,0x10
    43e0:	00470713          	addi	a4,a4,4
    43e4:	00080e93          	mv	t4,a6
    43e8:	00072803          	lw	a6,0(a4)
    43ec:	01051513          	slli	a0,a0,0x10
    43f0:	01055313          	srli	t1,a0,0x10
    43f4:	010585b3          	add	a1,a1,a6
    43f8:	26b44863          	blt	s0,a1,4668 <matrix_test+0xba8>
    43fc:	010eaf33          	slt	t5,t4,a6
    4400:	01e303b3          	add	t2,t1,t5
    4404:	01039893          	slli	a7,t2,0x10
    4408:	4108d513          	srai	a0,a7,0x10
    440c:	00470713          	addi	a4,a4,4
    4410:	12ea9863          	bne	s5,a4,4540 <matrix_test+0xa80>
    4414:	00160f93          	addi	t6,a2,1
    4418:	41928ab3          	sub	s5,t0,s9
    441c:	2d760263          	beq	a2,s7,46e0 <matrix_test+0xc20>
    4420:	000f8613          	mv	a2,t6
    4424:	e69ff06f          	j	428c <matrix_test+0x7cc>
    4428:	00472083          	lw	ra,4(a4)
    442c:	00a68f13          	addi	t5,a3,10
    4430:	010f1393          	slli	t2,t5,0x10
    4434:	4103d313          	srai	t1,t2,0x10
    4438:	00000e93          	li	t4,0
    443c:	01031893          	slli	a7,t1,0x10
    4440:	001e8333          	add	t1,t4,ra
    4444:	00470713          	addi	a4,a4,4
    4448:	0108de13          	srli	t3,a7,0x10
    444c:	12645863          	bge	s0,t1,457c <matrix_test+0xabc>
    4450:	00ae0593          	addi	a1,t3,10
    4454:	00472503          	lw	a0,4(a4)
    4458:	01059813          	slli	a6,a1,0x10
    445c:	41085793          	srai	a5,a6,0x10
    4460:	00000313          	li	t1,0
    4464:	01079f13          	slli	t5,a5,0x10
    4468:	00a305b3          	add	a1,t1,a0
    446c:	010f5393          	srli	t2,t5,0x10
    4470:	12b44863          	blt	s0,a1,45a0 <matrix_test+0xae0>
    4474:	00a0a0b3          	slt	ra,ra,a0
    4478:	00872803          	lw	a6,8(a4)
    447c:	001388b3          	add	a7,t2,ra
    4480:	01089e13          	slli	t3,a7,0x10
    4484:	410e5e93          	srai	t4,t3,0x10
    4488:	010e9793          	slli	a5,t4,0x10
    448c:	01058fb3          	add	t6,a1,a6
    4490:	0107d313          	srli	t1,a5,0x10
    4494:	13f44863          	blt	s0,t6,45c4 <matrix_test+0xb04>
    4498:	01052533          	slt	a0,a0,a6
    449c:	00c72683          	lw	a3,12(a4)
    44a0:	00a30f33          	add	t5,t1,a0
    44a4:	010f1393          	slli	t2,t5,0x10
    44a8:	4103de13          	srai	t3,t2,0x10
    44ac:	010e1e93          	slli	t4,t3,0x10
    44b0:	00df80b3          	add	ra,t6,a3
    44b4:	010ed793          	srli	a5,t4,0x10
    44b8:	12144863          	blt	s0,ra,45e8 <matrix_test+0xb28>
    44bc:	00d82833          	slt	a6,a6,a3
    44c0:	01072883          	lw	a7,16(a4)
    44c4:	01078333          	add	t1,a5,a6
    44c8:	01031513          	slli	a0,t1,0x10
    44cc:	41055393          	srai	t2,a0,0x10
    44d0:	01039e13          	slli	t3,t2,0x10
    44d4:	011085b3          	add	a1,ra,a7
    44d8:	010e5f93          	srli	t6,t3,0x10
    44dc:	12b44863          	blt	s0,a1,460c <matrix_test+0xb4c>
    44e0:	0116a6b3          	slt	a3,a3,a7
    44e4:	01472503          	lw	a0,20(a4)
    44e8:	00df8eb3          	add	t4,t6,a3
    44ec:	010e9793          	slli	a5,t4,0x10
    44f0:	4107df13          	srai	t5,a5,0x10
    44f4:	010f1393          	slli	t2,t5,0x10
    44f8:	00a58333          	add	t1,a1,a0
    44fc:	0103d093          	srli	ra,t2,0x10
    4500:	12644863          	blt	s0,t1,4630 <matrix_test+0xb70>
    4504:	00a8a8b3          	slt	a7,a7,a0
    4508:	01872803          	lw	a6,24(a4)
    450c:	01108e33          	add	t3,ra,a7
    4510:	010e1f93          	slli	t6,t3,0x10
    4514:	410fd793          	srai	a5,t6,0x10
    4518:	01079f13          	slli	t5,a5,0x10
    451c:	010305b3          	add	a1,t1,a6
    4520:	010f5393          	srli	t2,t5,0x10
    4524:	12b44863          	blt	s0,a1,4654 <matrix_test+0xb94>
    4528:	01052533          	slt	a0,a0,a6
    452c:	00a380b3          	add	ra,t2,a0
    4530:	01009893          	slli	a7,ra,0x10
    4534:	4108d513          	srai	a0,a7,0x10
    4538:	01c70713          	addi	a4,a4,28
    453c:	ecea8ce3          	beq	s5,a4,4414 <matrix_test+0x954>
    4540:	00072f83          	lw	t6,0(a4)
    4544:	01051e13          	slli	t3,a0,0x10
    4548:	010e5693          	srli	a3,t3,0x10
    454c:	01f58eb3          	add	t4,a1,t6
    4550:	edd44ce3          	blt	s0,t4,4428 <matrix_test+0x968>
    4554:	01f82833          	slt	a6,a6,t6
    4558:	00472083          	lw	ra,4(a4)
    455c:	010687b3          	add	a5,a3,a6
    4560:	01079513          	slli	a0,a5,0x10
    4564:	41055313          	srai	t1,a0,0x10
    4568:	01031893          	slli	a7,t1,0x10
    456c:	001e8333          	add	t1,t4,ra
    4570:	00470713          	addi	a4,a4,4
    4574:	0108de13          	srli	t3,a7,0x10
    4578:	ec644ce3          	blt	s0,t1,4450 <matrix_test+0x990>
    457c:	001fafb3          	slt	t6,t6,ra
    4580:	00472503          	lw	a0,4(a4)
    4584:	01fe06b3          	add	a3,t3,t6
    4588:	01069e93          	slli	t4,a3,0x10
    458c:	410ed793          	srai	a5,t4,0x10
    4590:	01079f13          	slli	t5,a5,0x10
    4594:	00a305b3          	add	a1,t1,a0
    4598:	010f5393          	srli	t2,t5,0x10
    459c:	ecb45ce3          	bge	s0,a1,4474 <matrix_test+0x9b4>
    45a0:	00a38f93          	addi	t6,t2,10
    45a4:	00872803          	lw	a6,8(a4)
    45a8:	010f9693          	slli	a3,t6,0x10
    45ac:	4106de93          	srai	t4,a3,0x10
    45b0:	00000593          	li	a1,0
    45b4:	010e9793          	slli	a5,t4,0x10
    45b8:	01058fb3          	add	t6,a1,a6
    45bc:	0107d313          	srli	t1,a5,0x10
    45c0:	edf45ce3          	bge	s0,t6,4498 <matrix_test+0x9d8>
    45c4:	00a30093          	addi	ra,t1,10
    45c8:	00c72683          	lw	a3,12(a4)
    45cc:	01009893          	slli	a7,ra,0x10
    45d0:	4108de13          	srai	t3,a7,0x10
    45d4:	00000f93          	li	t6,0
    45d8:	010e1e93          	slli	t4,t3,0x10
    45dc:	00df80b3          	add	ra,t6,a3
    45e0:	010ed793          	srli	a5,t4,0x10
    45e4:	ec145ce3          	bge	s0,ra,44bc <matrix_test+0x9fc>
    45e8:	00a78593          	addi	a1,a5,10
    45ec:	01072883          	lw	a7,16(a4)
    45f0:	01059f13          	slli	t5,a1,0x10
    45f4:	410f5393          	srai	t2,t5,0x10
    45f8:	00000093          	li	ra,0
    45fc:	01039e13          	slli	t3,t2,0x10
    4600:	011085b3          	add	a1,ra,a7
    4604:	010e5f93          	srli	t6,t3,0x10
    4608:	ecb45ce3          	bge	s0,a1,44e0 <matrix_test+0xa20>
    460c:	01472503          	lw	a0,20(a4)
    4610:	00af8813          	addi	a6,t6,10
    4614:	01081313          	slli	t1,a6,0x10
    4618:	41035f13          	srai	t5,t1,0x10
    461c:	00000593          	li	a1,0
    4620:	010f1393          	slli	t2,t5,0x10
    4624:	00a58333          	add	t1,a1,a0
    4628:	0103d093          	srli	ra,t2,0x10
    462c:	ec645ce3          	bge	s0,t1,4504 <matrix_test+0xa44>
    4630:	01872803          	lw	a6,24(a4)
    4634:	00a08693          	addi	a3,ra,10
    4638:	01069e93          	slli	t4,a3,0x10
    463c:	410ed793          	srai	a5,t4,0x10
    4640:	00000313          	li	t1,0
    4644:	01079f13          	slli	t5,a5,0x10
    4648:	010305b3          	add	a1,t1,a6
    464c:	010f5393          	srli	t2,t5,0x10
    4650:	ecb45ce3          	bge	s0,a1,4528 <matrix_test+0xa68>
    4654:	00a38593          	addi	a1,t2,10
    4658:	01059e13          	slli	t3,a1,0x10
    465c:	410e5513          	srai	a0,t3,0x10
    4660:	00000593          	li	a1,0
    4664:	ed5ff06f          	j	4538 <matrix_test+0xa78>
    4668:	00a30593          	addi	a1,t1,10
    466c:	01059093          	slli	ra,a1,0x10
    4670:	4100d513          	srai	a0,ra,0x10
    4674:	00000593          	li	a1,0
    4678:	d95ff06f          	j	440c <matrix_test+0x94c>
    467c:	00a88693          	addi	a3,a7,10
    4680:	01069793          	slli	a5,a3,0x10
    4684:	4107d513          	srai	a0,a5,0x10
    4688:	00000593          	li	a1,0
    468c:	d55ff06f          	j	43e0 <matrix_test+0x920>
    4690:	00a68593          	addi	a1,a3,10
    4694:	01059313          	slli	t1,a1,0x10
    4698:	41035513          	srai	a0,t1,0x10
    469c:	00000593          	li	a1,0
    46a0:	d15ff06f          	j	43b4 <matrix_test+0x8f4>
    46a4:	00ae8893          	addi	a7,t4,10
    46a8:	01089093          	slli	ra,a7,0x10
    46ac:	4100d513          	srai	a0,ra,0x10
    46b0:	00000593          	li	a1,0
    46b4:	cd5ff06f          	j	4388 <matrix_test+0x8c8>
    46b8:	00a88593          	addi	a1,a7,10
    46bc:	01059793          	slli	a5,a1,0x10
    46c0:	4107d513          	srai	a0,a5,0x10
    46c4:	00000593          	li	a1,0
    46c8:	c95ff06f          	j	435c <matrix_test+0x89c>
    46cc:	00ae0e93          	addi	t4,t3,10
    46d0:	010e9313          	slli	t1,t4,0x10
    46d4:	41035513          	srai	a0,t1,0x10
    46d8:	00000593          	li	a1,0
    46dc:	c55ff06f          	j	4330 <matrix_test+0x870>
    46e0:	000d0593          	mv	a1,s10
    46e4:	eb0fd0ef          	jal	ra,1d94 <crc16>
    46e8:	000b0693          	mv	a3,s6
    46ec:	000a0613          	mv	a2,s4
    46f0:	00050a93          	mv	s5,a0
    46f4:	00098593          	mv	a1,s3
    46f8:	00048513          	mv	a0,s1
    46fc:	ee9fe0ef          	jal	ra,35e4 <matrix_mul_matrix>
    4700:	00000b93          	li	s7,0
    4704:	00000513          	li	a0,0
    4708:	00000693          	li	a3,0
    470c:	00000613          	li	a2,0
    4710:	00000c13          	li	s8,0
    4714:	002b9c93          	slli	s9,s7,0x2
    4718:	01998d33          	add	s10,s3,s9
    471c:	00068293          	mv	t0,a3
    4720:	000d2683          	lw	a3,0(s10)
    4724:	fff48e93          	addi	t4,s1,-1
    4728:	01051313          	slli	t1,a0,0x10
    472c:	00d60633          	add	a2,a2,a3
    4730:	003ef793          	andi	a5,t4,3
    4734:	01035813          	srli	a6,t1,0x10
    4738:	62c45663          	bge	s0,a2,4d64 <matrix_test+0x12a4>
    473c:	00a80613          	addi	a2,a6,10
    4740:	01061093          	slli	ra,a2,0x10
    4744:	4100d513          	srai	a0,ra,0x10
    4748:	00000613          	li	a2,0
    474c:	00100813          	li	a6,1
    4750:	004d0593          	addi	a1,s10,4
    4754:	1e987063          	bgeu	a6,s1,4934 <matrix_test+0xe74>
    4758:	12078c63          	beqz	a5,4890 <matrix_test+0xdd0>
    475c:	07078663          	beq	a5,a6,47c8 <matrix_test+0xd08>
    4760:	00200893          	li	a7,2
    4764:	03178a63          	beq	a5,a7,4798 <matrix_test+0xcd8>
    4768:	00068e13          	mv	t3,a3
    476c:	004d2683          	lw	a3,4(s10)
    4770:	01051713          	slli	a4,a0,0x10
    4774:	01075f93          	srli	t6,a4,0x10
    4778:	00d60633          	add	a2,a2,a3
    477c:	66c44063          	blt	s0,a2,4ddc <matrix_test+0x131c>
    4780:	00de2cb3          	slt	s9,t3,a3
    4784:	019f8d33          	add	s10,t6,s9
    4788:	010d1293          	slli	t0,s10,0x10
    478c:	4102d513          	srai	a0,t0,0x10
    4790:	00180813          	addi	a6,a6,1
    4794:	00458593          	addi	a1,a1,4
    4798:	00068313          	mv	t1,a3
    479c:	0005a683          	lw	a3,0(a1)
    47a0:	01051f13          	slli	t5,a0,0x10
    47a4:	010f5393          	srli	t2,t5,0x10
    47a8:	00d60633          	add	a2,a2,a3
    47ac:	60c44463          	blt	s0,a2,4db4 <matrix_test+0x12f4>
    47b0:	00d32533          	slt	a0,t1,a3
    47b4:	00a380b3          	add	ra,t2,a0
    47b8:	01009893          	slli	a7,ra,0x10
    47bc:	4108d513          	srai	a0,a7,0x10
    47c0:	00180813          	addi	a6,a6,1
    47c4:	00458593          	addi	a1,a1,4
    47c8:	00068713          	mv	a4,a3
    47cc:	0005a683          	lw	a3,0(a1)
    47d0:	01051f93          	slli	t6,a0,0x10
    47d4:	010fdc93          	srli	s9,t6,0x10
    47d8:	00d60633          	add	a2,a2,a3
    47dc:	58c44e63          	blt	s0,a2,4d78 <matrix_test+0x12b8>
    47e0:	00d72d33          	slt	s10,a4,a3
    47e4:	01ac82b3          	add	t0,s9,s10
    47e8:	01029e93          	slli	t4,t0,0x10
    47ec:	410ed513          	srai	a0,t4,0x10
    47f0:	00180813          	addi	a6,a6,1
    47f4:	00458593          	addi	a1,a1,4
    47f8:	08986c63          	bltu	a6,s1,4890 <matrix_test+0xdd0>
    47fc:	1380006f          	j	4934 <matrix_test+0xe74>
    4800:	0045ac83          	lw	s9,4(a1)
    4804:	00a50713          	addi	a4,a0,10
    4808:	01071f93          	slli	t6,a4,0x10
    480c:	410fde13          	srai	t3,t6,0x10
    4810:	00000093          	li	ra,0
    4814:	010e1d13          	slli	s10,t3,0x10
    4818:	019080b3          	add	ra,ra,s9
    481c:	00180813          	addi	a6,a6,1
    4820:	00458593          	addi	a1,a1,4
    4824:	010d5293          	srli	t0,s10,0x10
    4828:	0a145463          	bge	s0,ra,48d0 <matrix_test+0xe10>
    482c:	0045a883          	lw	a7,4(a1)
    4830:	00a28f13          	addi	t5,t0,10
    4834:	010f1393          	slli	t2,t5,0x10
    4838:	4103d513          	srai	a0,t2,0x10
    483c:	00000093          	li	ra,0
    4840:	01051693          	slli	a3,a0,0x10
    4844:	01108eb3          	add	t4,ra,a7
    4848:	0106de13          	srli	t3,a3,0x10
    484c:	0bd44463          	blt	s0,t4,48f4 <matrix_test+0xe34>
    4850:	011ca733          	slt	a4,s9,a7
    4854:	0085a683          	lw	a3,8(a1)
    4858:	00ee0fb3          	add	t6,t3,a4
    485c:	010f9c93          	slli	s9,t6,0x10
    4860:	410cd293          	srai	t0,s9,0x10
    4864:	01029793          	slli	a5,t0,0x10
    4868:	00de8633          	add	a2,t4,a3
    486c:	0107d313          	srli	t1,a5,0x10
    4870:	0ac44463          	blt	s0,a2,4918 <matrix_test+0xe58>
    4874:	00d8af33          	slt	t5,a7,a3
    4878:	01e303b3          	add	t2,t1,t5
    487c:	01039513          	slli	a0,t2,0x10
    4880:	00380813          	addi	a6,a6,3
    4884:	41055513          	srai	a0,a0,0x10
    4888:	00c58593          	addi	a1,a1,12
    488c:	0a987463          	bgeu	a6,s1,4934 <matrix_test+0xe74>
    4890:	0005af03          	lw	t5,0(a1)
    4894:	01051393          	slli	t2,a0,0x10
    4898:	0103d513          	srli	a0,t2,0x10
    489c:	01e600b3          	add	ra,a2,t5
    48a0:	f61440e3          	blt	s0,ra,4800 <matrix_test+0xd40>
    48a4:	01e6a6b3          	slt	a3,a3,t5
    48a8:	0045ac83          	lw	s9,4(a1)
    48ac:	00d508b3          	add	a7,a0,a3
    48b0:	01089613          	slli	a2,a7,0x10
    48b4:	41065e13          	srai	t3,a2,0x10
    48b8:	010e1d13          	slli	s10,t3,0x10
    48bc:	019080b3          	add	ra,ra,s9
    48c0:	00180813          	addi	a6,a6,1
    48c4:	00458593          	addi	a1,a1,4
    48c8:	010d5293          	srli	t0,s10,0x10
    48cc:	f61440e3          	blt	s0,ra,482c <matrix_test+0xd6c>
    48d0:	019f2eb3          	slt	t4,t5,s9
    48d4:	01d287b3          	add	a5,t0,t4
    48d8:	0045a883          	lw	a7,4(a1)
    48dc:	01079313          	slli	t1,a5,0x10
    48e0:	41035513          	srai	a0,t1,0x10
    48e4:	01051693          	slli	a3,a0,0x10
    48e8:	01108eb3          	add	t4,ra,a7
    48ec:	0106de13          	srli	t3,a3,0x10
    48f0:	f7d450e3          	bge	s0,t4,4850 <matrix_test+0xd90>
    48f4:	00ae0613          	addi	a2,t3,10
    48f8:	0085a683          	lw	a3,8(a1)
    48fc:	01061d13          	slli	s10,a2,0x10
    4900:	410d5293          	srai	t0,s10,0x10
    4904:	00000e93          	li	t4,0
    4908:	01029793          	slli	a5,t0,0x10
    490c:	00de8633          	add	a2,t4,a3
    4910:	0107d313          	srli	t1,a5,0x10
    4914:	f6c450e3          	bge	s0,a2,4874 <matrix_test+0xdb4>
    4918:	00a30093          	addi	ra,t1,10
    491c:	01009893          	slli	a7,ra,0x10
    4920:	00380813          	addi	a6,a6,3
    4924:	4108d513          	srai	a0,a7,0x10
    4928:	00000613          	li	a2,0
    492c:	00c58593          	addi	a1,a1,12
    4930:	f69860e3          	bltu	a6,s1,4890 <matrix_test+0xdd0>
    4934:	001c0c13          	addi	s8,s8,1
    4938:	009b8bb3          	add	s7,s7,s1
    493c:	dc9c6ce3          	bltu	s8,s1,4714 <matrix_test+0xc54>
    4940:	000a8593          	mv	a1,s5
    4944:	c50fd0ef          	jal	ra,1d94 <crc16>
    4948:	000b0693          	mv	a3,s6
    494c:	000a0613          	mv	a2,s4
    4950:	00050a93          	mv	s5,a0
    4954:	00098593          	mv	a1,s3
    4958:	00048513          	mv	a0,s1
    495c:	f25fe0ef          	jal	ra,3880 <matrix_mul_matrix_bitextract>
    4960:	00000b13          	li	s6,0
    4964:	00000513          	li	a0,0
    4968:	00000613          	li	a2,0
    496c:	00000693          	li	a3,0
    4970:	00000b93          	li	s7,0
    4974:	002b1c13          	slli	s8,s6,0x2
    4978:	01898733          	add	a4,s3,s8
    497c:	00060e13          	mv	t3,a2
    4980:	00072603          	lw	a2,0(a4)
    4984:	fff48f93          	addi	t6,s1,-1
    4988:	01051d13          	slli	s10,a0,0x10
    498c:	00c686b3          	add	a3,a3,a2
    4990:	003ffc93          	andi	s9,t6,3
    4994:	010d5293          	srli	t0,s10,0x10
    4998:	3ad45c63          	bge	s0,a3,4d50 <matrix_test+0x1290>
    499c:	00a28693          	addi	a3,t0,10
    49a0:	01069f13          	slli	t5,a3,0x10
    49a4:	410f5513          	srai	a0,t5,0x10
    49a8:	00000693          	li	a3,0
    49ac:	00100813          	li	a6,1
    49b0:	00470593          	addi	a1,a4,4
    49b4:	1e987063          	bgeu	a6,s1,4b94 <matrix_test+0x10d4>
    49b8:	120c8c63          	beqz	s9,4af0 <matrix_test+0x1030>
    49bc:	070c8663          	beq	s9,a6,4a28 <matrix_test+0xf68>
    49c0:	00200393          	li	t2,2
    49c4:	027c8a63          	beq	s9,t2,49f8 <matrix_test+0xf38>
    49c8:	00060093          	mv	ra,a2
    49cc:	00472603          	lw	a2,4(a4)
    49d0:	01051513          	slli	a0,a0,0x10
    49d4:	01055893          	srli	a7,a0,0x10
    49d8:	00c686b3          	add	a3,a3,a2
    49dc:	3ed44663          	blt	s0,a3,4dc8 <matrix_test+0x1308>
    49e0:	00c0ac33          	slt	s8,ra,a2
    49e4:	01888733          	add	a4,a7,s8
    49e8:	01071e13          	slli	t3,a4,0x10
    49ec:	410e5513          	srai	a0,t3,0x10
    49f0:	00180813          	addi	a6,a6,1
    49f4:	00458593          	addi	a1,a1,4
    49f8:	00060d13          	mv	s10,a2
    49fc:	0005a603          	lw	a2,0(a1)
    4a00:	01051293          	slli	t0,a0,0x10
    4a04:	0102de93          	srli	t4,t0,0x10
    4a08:	00c686b3          	add	a3,a3,a2
    4a0c:	38d44a63          	blt	s0,a3,4da0 <matrix_test+0x12e0>
    4a10:	00cd27b3          	slt	a5,s10,a2
    4a14:	00fe8333          	add	t1,t4,a5
    4a18:	01031f13          	slli	t5,t1,0x10
    4a1c:	410f5513          	srai	a0,t5,0x10
    4a20:	00180813          	addi	a6,a6,1
    4a24:	00458593          	addi	a1,a1,4
    4a28:	00060093          	mv	ra,a2
    4a2c:	0005a603          	lw	a2,0(a1)
    4a30:	01051513          	slli	a0,a0,0x10
    4a34:	01055c13          	srli	s8,a0,0x10
    4a38:	00c686b3          	add	a3,a3,a2
    4a3c:	34d44863          	blt	s0,a3,4d8c <matrix_test+0x12cc>
    4a40:	00c0a8b3          	slt	a7,ra,a2
    4a44:	011c0733          	add	a4,s8,a7
    4a48:	01071e13          	slli	t3,a4,0x10
    4a4c:	410e5513          	srai	a0,t3,0x10
    4a50:	00180813          	addi	a6,a6,1
    4a54:	00458593          	addi	a1,a1,4
    4a58:	08986c63          	bltu	a6,s1,4af0 <matrix_test+0x1030>
    4a5c:	1380006f          	j	4b94 <matrix_test+0x10d4>
    4a60:	0045ac03          	lw	s8,4(a1)
    4a64:	00ae8693          	addi	a3,t4,10
    4a68:	01069093          	slli	ra,a3,0x10
    4a6c:	4100d393          	srai	t2,ra,0x10
    4a70:	00000793          	li	a5,0
    4a74:	01039513          	slli	a0,t2,0x10
    4a78:	01878eb3          	add	t4,a5,s8
    4a7c:	00180813          	addi	a6,a6,1
    4a80:	00458593          	addi	a1,a1,4
    4a84:	01055713          	srli	a4,a0,0x10
    4a88:	0bd45463          	bge	s0,t4,4b30 <matrix_test+0x1070>
    4a8c:	00a70c93          	addi	s9,a4,10
    4a90:	0045a783          	lw	a5,4(a1)
    4a94:	010c9d13          	slli	s10,s9,0x10
    4a98:	410d5293          	srai	t0,s10,0x10
    4a9c:	00000e93          	li	t4,0
    4aa0:	01029613          	slli	a2,t0,0x10
    4aa4:	00fe8733          	add	a4,t4,a5
    4aa8:	01065313          	srli	t1,a2,0x10
    4aac:	0ae44463          	blt	s0,a4,4b54 <matrix_test+0x1094>
    4ab0:	00fc2f33          	slt	t5,s8,a5
    4ab4:	0085a603          	lw	a2,8(a1)
    4ab8:	01e303b3          	add	t2,t1,t5
    4abc:	01039093          	slli	ra,t2,0x10
    4ac0:	4100d513          	srai	a0,ra,0x10
    4ac4:	01051893          	slli	a7,a0,0x10
    4ac8:	00c706b3          	add	a3,a4,a2
    4acc:	0108de13          	srli	t3,a7,0x10
    4ad0:	0ad44463          	blt	s0,a3,4b78 <matrix_test+0x10b8>
    4ad4:	00c7afb3          	slt	t6,a5,a2
    4ad8:	01fe0cb3          	add	s9,t3,t6
    4adc:	010c9d13          	slli	s10,s9,0x10
    4ae0:	00380813          	addi	a6,a6,3
    4ae4:	410d5513          	srai	a0,s10,0x10
    4ae8:	00c58593          	addi	a1,a1,12
    4aec:	0a987463          	bgeu	a6,s1,4b94 <matrix_test+0x10d4>
    4af0:	0005ad03          	lw	s10,0(a1)
    4af4:	01051293          	slli	t0,a0,0x10
    4af8:	0102de93          	srli	t4,t0,0x10
    4afc:	01a687b3          	add	a5,a3,s10
    4b00:	f6f440e3          	blt	s0,a5,4a60 <matrix_test+0xfa0>
    4b04:	01a62633          	slt	a2,a2,s10
    4b08:	0045ac03          	lw	s8,4(a1)
    4b0c:	00ce8333          	add	t1,t4,a2
    4b10:	01031f13          	slli	t5,t1,0x10
    4b14:	410f5393          	srai	t2,t5,0x10
    4b18:	01039513          	slli	a0,t2,0x10
    4b1c:	01878eb3          	add	t4,a5,s8
    4b20:	00180813          	addi	a6,a6,1
    4b24:	00458593          	addi	a1,a1,4
    4b28:	01055713          	srli	a4,a0,0x10
    4b2c:	f7d440e3          	blt	s0,t4,4a8c <matrix_test+0xfcc>
    4b30:	018d28b3          	slt	a7,s10,s8
    4b34:	01170e33          	add	t3,a4,a7
    4b38:	0045a783          	lw	a5,4(a1)
    4b3c:	010e1f93          	slli	t6,t3,0x10
    4b40:	410fd293          	srai	t0,t6,0x10
    4b44:	01029613          	slli	a2,t0,0x10
    4b48:	00fe8733          	add	a4,t4,a5
    4b4c:	01065313          	srli	t1,a2,0x10
    4b50:	f6e450e3          	bge	s0,a4,4ab0 <matrix_test+0xff0>
    4b54:	00a30693          	addi	a3,t1,10
    4b58:	0085a603          	lw	a2,8(a1)
    4b5c:	01069c13          	slli	s8,a3,0x10
    4b60:	410c5513          	srai	a0,s8,0x10
    4b64:	00000713          	li	a4,0
    4b68:	01051893          	slli	a7,a0,0x10
    4b6c:	00c706b3          	add	a3,a4,a2
    4b70:	0108de13          	srli	t3,a7,0x10
    4b74:	f6d450e3          	bge	s0,a3,4ad4 <matrix_test+0x1014>
    4b78:	00ae0293          	addi	t0,t3,10
    4b7c:	01029e93          	slli	t4,t0,0x10
    4b80:	00380813          	addi	a6,a6,3
    4b84:	410ed513          	srai	a0,t4,0x10
    4b88:	00000693          	li	a3,0
    4b8c:	00c58593          	addi	a1,a1,12
    4b90:	f69860e3          	bltu	a6,s1,4af0 <matrix_test+0x1030>
    4b94:	001b8b93          	addi	s7,s7,1
    4b98:	009b0b33          	add	s6,s6,s1
    4b9c:	dc9bece3          	bltu	s7,s1,4974 <matrix_test+0xeb4>
    4ba0:	000a8593          	mv	a1,s5
    4ba4:	9f0fd0ef          	jal	ra,1d94 <crc16>
    4ba8:	00000413          	li	s0,0
    4bac:	00000993          	li	s3,0
    4bb0:	00141a93          	slli	s5,s0,0x1
    4bb4:	015a0b33          	add	s6,s4,s5
    4bb8:	000b5b83          	lhu	s7,0(s6)
    4bbc:	fff48793          	addi	a5,s1,-1
    4bc0:	00100613          	li	a2,1
    4bc4:	412b8333          	sub	t1,s7,s2
    4bc8:	006b1023          	sh	t1,0(s6)
    4bcc:	0077ff13          	andi	t5,a5,7
    4bd0:	002b0693          	addi	a3,s6,2
    4bd4:	12967863          	bgeu	a2,s1,4d04 <matrix_test+0x1244>
    4bd8:	0c0f0063          	beqz	t5,4c98 <matrix_test+0x11d8>
    4bdc:	0acf0263          	beq	t5,a2,4c80 <matrix_test+0x11c0>
    4be0:	00200393          	li	t2,2
    4be4:	087f0463          	beq	t5,t2,4c6c <matrix_test+0x11ac>
    4be8:	00300093          	li	ra,3
    4bec:	061f0663          	beq	t5,ra,4c58 <matrix_test+0x1198>
    4bf0:	00400c13          	li	s8,4
    4bf4:	058f0863          	beq	t5,s8,4c44 <matrix_test+0x1184>
    4bf8:	00500713          	li	a4,5
    4bfc:	02ef0a63          	beq	t5,a4,4c30 <matrix_test+0x1170>
    4c00:	00600893          	li	a7,6
    4c04:	011f0c63          	beq	t5,a7,4c1c <matrix_test+0x115c>
    4c08:	002b5e03          	lhu	t3,2(s6)
    4c0c:	00200613          	li	a2,2
    4c10:	004b0693          	addi	a3,s6,4
    4c14:	412e0fb3          	sub	t6,t3,s2
    4c18:	01fb1123          	sh	t6,2(s6)
    4c1c:	0006dc83          	lhu	s9,0(a3)
    4c20:	00160613          	addi	a2,a2,1
    4c24:	00268693          	addi	a3,a3,2
    4c28:	412c8d33          	sub	s10,s9,s2
    4c2c:	ffa69f23          	sh	s10,-2(a3)
    4c30:	0006d283          	lhu	t0,0(a3)
    4c34:	00160613          	addi	a2,a2,1
    4c38:	00268693          	addi	a3,a3,2
    4c3c:	41228eb3          	sub	t4,t0,s2
    4c40:	ffd69f23          	sh	t4,-2(a3)
    4c44:	0006d803          	lhu	a6,0(a3)
    4c48:	00160613          	addi	a2,a2,1
    4c4c:	00268693          	addi	a3,a3,2
    4c50:	412805b3          	sub	a1,a6,s2
    4c54:	feb69f23          	sh	a1,-2(a3)
    4c58:	0006da83          	lhu	s5,0(a3)
    4c5c:	00160613          	addi	a2,a2,1
    4c60:	00268693          	addi	a3,a3,2
    4c64:	412a8b33          	sub	s6,s5,s2
    4c68:	ff669f23          	sh	s6,-2(a3)
    4c6c:	0006db83          	lhu	s7,0(a3)
    4c70:	00160613          	addi	a2,a2,1
    4c74:	00268693          	addi	a3,a3,2
    4c78:	412b87b3          	sub	a5,s7,s2
    4c7c:	fef69f23          	sh	a5,-2(a3)
    4c80:	0006d303          	lhu	t1,0(a3)
    4c84:	00268693          	addi	a3,a3,2
    4c88:	00160613          	addi	a2,a2,1
    4c8c:	41230f33          	sub	t5,t1,s2
    4c90:	ffe69f23          	sh	t5,-2(a3)
    4c94:	06967863          	bgeu	a2,s1,4d04 <matrix_test+0x1244>
    4c98:	0006d383          	lhu	t2,0(a3)
    4c9c:	0026d083          	lhu	ra,2(a3)
    4ca0:	0046dc03          	lhu	s8,4(a3)
    4ca4:	0066d883          	lhu	a7,6(a3)
    4ca8:	0086de03          	lhu	t3,8(a3)
    4cac:	00a6dc83          	lhu	s9,10(a3)
    4cb0:	00c6d703          	lhu	a4,12(a3)
    4cb4:	00e6dd03          	lhu	s10,14(a3)
    4cb8:	41238fb3          	sub	t6,t2,s2
    4cbc:	412082b3          	sub	t0,ra,s2
    4cc0:	412c0eb3          	sub	t4,s8,s2
    4cc4:	41288ab3          	sub	s5,a7,s2
    4cc8:	412e0833          	sub	a6,t3,s2
    4ccc:	412c85b3          	sub	a1,s9,s2
    4cd0:	41270b33          	sub	s6,a4,s2
    4cd4:	412d0bb3          	sub	s7,s10,s2
    4cd8:	01f69023          	sh	t6,0(a3)
    4cdc:	00569123          	sh	t0,2(a3)
    4ce0:	01d69223          	sh	t4,4(a3)
    4ce4:	01569323          	sh	s5,6(a3)
    4ce8:	01069423          	sh	a6,8(a3)
    4cec:	00b69523          	sh	a1,10(a3)
    4cf0:	01669623          	sh	s6,12(a3)
    4cf4:	01769723          	sh	s7,14(a3)
    4cf8:	00860613          	addi	a2,a2,8
    4cfc:	01068693          	addi	a3,a3,16
    4d00:	f8966ce3          	bltu	a2,s1,4c98 <matrix_test+0x11d8>
    4d04:	00198993          	addi	s3,s3,1
    4d08:	00940433          	add	s0,s0,s1
    4d0c:	ea99e2e3          	bltu	s3,s1,4bb0 <matrix_test+0x10f0>
    4d10:	02c12083          	lw	ra,44(sp)
    4d14:	02812403          	lw	s0,40(sp)
    4d18:	01051493          	slli	s1,a0,0x10
    4d1c:	02012903          	lw	s2,32(sp)
    4d20:	01c12983          	lw	s3,28(sp)
    4d24:	01812a03          	lw	s4,24(sp)
    4d28:	01412a83          	lw	s5,20(sp)
    4d2c:	01012b03          	lw	s6,16(sp)
    4d30:	00c12b83          	lw	s7,12(sp)
    4d34:	00812c03          	lw	s8,8(sp)
    4d38:	00412c83          	lw	s9,4(sp)
    4d3c:	00012d03          	lw	s10,0(sp)
    4d40:	4104d513          	srai	a0,s1,0x10
    4d44:	02412483          	lw	s1,36(sp)
    4d48:	03010113          	addi	sp,sp,48
    4d4c:	00008067          	ret
    4d50:	00ce2eb3          	slt	t4,t3,a2
    4d54:	01d287b3          	add	a5,t0,t4
    4d58:	01079313          	slli	t1,a5,0x10
    4d5c:	41035513          	srai	a0,t1,0x10
    4d60:	c4dff06f          	j	49ac <matrix_test+0xeec>
    4d64:	00d2af33          	slt	t5,t0,a3
    4d68:	01e803b3          	add	t2,a6,t5
    4d6c:	01039513          	slli	a0,t2,0x10
    4d70:	41055513          	srai	a0,a0,0x10
    4d74:	9d9ff06f          	j	474c <matrix_test+0xc8c>
    4d78:	00ac8793          	addi	a5,s9,10
    4d7c:	01079313          	slli	t1,a5,0x10
    4d80:	41035513          	srai	a0,t1,0x10
    4d84:	00000613          	li	a2,0
    4d88:	a69ff06f          	j	47f0 <matrix_test+0xd30>
    4d8c:	00ac0f93          	addi	t6,s8,10
    4d90:	010f9c93          	slli	s9,t6,0x10
    4d94:	410cd513          	srai	a0,s9,0x10
    4d98:	00000693          	li	a3,0
    4d9c:	cb5ff06f          	j	4a50 <matrix_test+0xf90>
    4da0:	00ae8693          	addi	a3,t4,10
    4da4:	01069393          	slli	t2,a3,0x10
    4da8:	4103d513          	srai	a0,t2,0x10
    4dac:	00000693          	li	a3,0
    4db0:	c71ff06f          	j	4a20 <matrix_test+0xf60>
    4db4:	00a38613          	addi	a2,t2,10
    4db8:	01061e13          	slli	t3,a2,0x10
    4dbc:	410e5513          	srai	a0,t3,0x10
    4dc0:	00000613          	li	a2,0
    4dc4:	9fdff06f          	j	47c0 <matrix_test+0xd00>
    4dc8:	00a88f93          	addi	t6,a7,10
    4dcc:	010f9c93          	slli	s9,t6,0x10
    4dd0:	410cd513          	srai	a0,s9,0x10
    4dd4:	00000693          	li	a3,0
    4dd8:	c19ff06f          	j	49f0 <matrix_test+0xf30>
    4ddc:	00af8e93          	addi	t4,t6,10
    4de0:	010e9793          	slli	a5,t4,0x10
    4de4:	4107d513          	srai	a0,a5,0x10
    4de8:	00000613          	li	a2,0
    4dec:	9a5ff06f          	j	4790 <matrix_test+0xcd0>
    4df0:	00a30593          	addi	a1,t1,10
    4df4:	01059393          	slli	t2,a1,0x10
    4df8:	4103d513          	srai	a0,t2,0x10
    4dfc:	00000593          	li	a1,0
    4e00:	880ff06f          	j	3e80 <matrix_test+0x3c0>
    4e04:	00ae8593          	addi	a1,t4,10
    4e08:	01059893          	slli	a7,a1,0x10
    4e0c:	4108d513          	srai	a0,a7,0x10
    4e10:	00000593          	li	a1,0
    4e14:	cf0ff06f          	j	4304 <matrix_test+0x844>
    4e18:	00000593          	li	a1,0
    4e1c:	f79fc0ef          	jal	ra,1d94 <crc16>
    4e20:	000b0693          	mv	a3,s6
    4e24:	000a0613          	mv	a2,s4
    4e28:	00050493          	mv	s1,a0
    4e2c:	00098593          	mv	a1,s3
    4e30:	00000513          	li	a0,0
    4e34:	d74fe0ef          	jal	ra,33a8 <matrix_mul_vect>
    4e38:	00048593          	mv	a1,s1
    4e3c:	00000513          	li	a0,0
    4e40:	f55fc0ef          	jal	ra,1d94 <crc16>
    4e44:	000b0693          	mv	a3,s6
    4e48:	000a0613          	mv	a2,s4
    4e4c:	00050913          	mv	s2,a0
    4e50:	00098593          	mv	a1,s3
    4e54:	00000513          	li	a0,0
    4e58:	f8cfe0ef          	jal	ra,35e4 <matrix_mul_matrix>
    4e5c:	00090593          	mv	a1,s2
    4e60:	00000513          	li	a0,0
    4e64:	f31fc0ef          	jal	ra,1d94 <crc16>
    4e68:	00050a93          	mv	s5,a0
    4e6c:	00098593          	mv	a1,s3
    4e70:	000b0693          	mv	a3,s6
    4e74:	000a0613          	mv	a2,s4
    4e78:	00000513          	li	a0,0
    4e7c:	a05fe0ef          	jal	ra,3880 <matrix_mul_matrix_bitextract>
    4e80:	000a8593          	mv	a1,s5
    4e84:	00000513          	li	a0,0
    4e88:	f0dfc0ef          	jal	ra,1d94 <crc16>
    4e8c:	e85ff06f          	j	4d10 <matrix_test+0x1250>

00004e90 <core_bench_matrix>:
    4e90:	ff010113          	addi	sp,sp,-16
    4e94:	00812423          	sw	s0,8(sp)
    4e98:	00852683          	lw	a3,8(a0)
    4e9c:	00060413          	mv	s0,a2
    4ea0:	00058713          	mv	a4,a1
    4ea4:	00452603          	lw	a2,4(a0)
    4ea8:	00c52583          	lw	a1,12(a0)
    4eac:	00052503          	lw	a0,0(a0)
    4eb0:	00112623          	sw	ra,12(sp)
    4eb4:	c0dfe0ef          	jal	ra,3ac0 <matrix_test>
    4eb8:	00040593          	mv	a1,s0
    4ebc:	00812403          	lw	s0,8(sp)
    4ec0:	00c12083          	lw	ra,12(sp)
    4ec4:	01010113          	addi	sp,sp,16
    4ec8:	ecdfc06f          	j	1d94 <crc16>

00004ecc <number>:
    4ecc:	f7010113          	addi	sp,sp,-144
    4ed0:	09212023          	sw	s2,128(sp)
    4ed4:	07412c23          	sw	s4,120(sp)
    4ed8:	08112623          	sw	ra,140(sp)
    4edc:	08812423          	sw	s0,136(sp)
    4ee0:	08912223          	sw	s1,132(sp)
    4ee4:	07312e23          	sw	s3,124(sp)
    4ee8:	07512a23          	sw	s5,116(sp)
    4eec:	07612823          	sw	s6,112(sp)
    4ef0:	07712623          	sw	s7,108(sp)
    4ef4:	07812423          	sw	s8,104(sp)
    4ef8:	07912223          	sw	s9,100(sp)
    4efc:	07a12023          	sw	s10,96(sp)
    4f00:	05b12e23          	sw	s11,92(sp)
    4f04:	0407f813          	andi	a6,a5,64
    4f08:	00050913          	mv	s2,a0
    4f0c:	00060a13          	mv	s4,a2
    4f10:	2c080463          	beqz	a6,51d8 <number+0x30c>
    4f14:	000102b7          	lui	t0,0x10
    4f18:	47028093          	addi	ra,t0,1136 # 10470 <__clz_tab+0x1d8>
    4f1c:	0107fc13          	andi	s8,a5,16
    4f20:	280c0c63          	beqz	s8,51b8 <number+0x2ec>
    4f24:	ffe7f793          	andi	a5,a5,-2
    4f28:	000c0e13          	mv	t3,s8
    4f2c:	0027f513          	andi	a0,a5,2
    4f30:	02000c93          	li	s9,32
    4f34:	0207fd13          	andi	s10,a5,32
    4f38:	2a050663          	beqz	a0,51e4 <number+0x318>
    4f3c:	2a05c863          	bltz	a1,51ec <number+0x320>
    4f40:	0047f393          	andi	t2,a5,4
    4f44:	2e039663          	bnez	t2,5230 <number+0x364>
    4f48:	0087f793          	andi	a5,a5,8
    4f4c:	00000d93          	li	s11,0
    4f50:	00078663          	beqz	a5,4f5c <number+0x90>
    4f54:	fff68693          	addi	a3,a3,-1
    4f58:	02000d93          	li	s11,32
    4f5c:	000d0c63          	beqz	s10,4f74 <number+0xa8>
    4f60:	01000413          	li	s0,16
    4f64:	2e8a0863          	beq	s4,s0,5254 <number+0x388>
    4f68:	ff8a0493          	addi	s1,s4,-8
    4f6c:	0014b893          	seqz	a7,s1
    4f70:	411686b3          	sub	a3,a3,a7
    4f74:	28059463          	bnez	a1,51fc <number+0x330>
    4f78:	03000593          	li	a1,48
    4f7c:	00b10623          	sb	a1,12(sp)
    4f80:	00000a93          	li	s5,0
    4f84:	03000b13          	li	s6,48
    4f88:	00100493          	li	s1,1
    4f8c:	00c10413          	addi	s0,sp,12
    4f90:	00048993          	mv	s3,s1
    4f94:	00e4d463          	bge	s1,a4,4f9c <number+0xd0>
    4f98:	00070993          	mv	s3,a4
    4f9c:	41368bb3          	sub	s7,a3,s3
    4fa0:	020e1263          	bnez	t3,4fc4 <number+0xf8>
    4fa4:	fffb8693          	addi	a3,s7,-1
    4fa8:	2d705663          	blez	s7,5274 <number+0x3a8>
    4fac:	000b8613          	mv	a2,s7
    4fb0:	00090513          	mv	a0,s2
    4fb4:	02000593          	li	a1,32
    4fb8:	01790933          	add	s2,s2,s7
    4fbc:	691010ef          	jal	ra,6e4c <memset>
    4fc0:	fff00b93          	li	s7,-1
    4fc4:	000d8663          	beqz	s11,4fd0 <number+0x104>
    4fc8:	01b90023          	sb	s11,0(s2)
    4fcc:	00190913          	addi	s2,s2,1
    4fd0:	000d0a63          	beqz	s10,4fe4 <number+0x118>
    4fd4:	00800713          	li	a4,8
    4fd8:	28ea0263          	beq	s4,a4,525c <number+0x390>
    4fdc:	01000f13          	li	t5,16
    4fe0:	25ea0e63          	beq	s4,t5,523c <number+0x370>
    4fe4:	020c1263          	bnez	s8,5008 <number+0x13c>
    4fe8:	fffb8313          	addi	t1,s7,-1
    4fec:	29705063          	blez	s7,526c <number+0x3a0>
    4ff0:	000b8613          	mv	a2,s7
    4ff4:	00090513          	mv	a0,s2
    4ff8:	000c8593          	mv	a1,s9
    4ffc:	01790933          	add	s2,s2,s7
    5000:	64d010ef          	jal	ra,6e4c <memset>
    5004:	fff00b93          	li	s7,-1
    5008:	0134de63          	bge	s1,s3,5024 <number+0x158>
    500c:	40998c33          	sub	s8,s3,s1
    5010:	00090513          	mv	a0,s2
    5014:	000c0613          	mv	a2,s8
    5018:	03000593          	li	a1,48
    501c:	631010ef          	jal	ra,6e4c <memset>
    5020:	01890933          	add	s2,s2,s8
    5024:	007af093          	andi	ra,s5,7
    5028:	015407b3          	add	a5,s0,s5
    502c:	00100293          	li	t0,1
    5030:	00090413          	mv	s0,s2
    5034:	10008663          	beqz	ra,5140 <number+0x274>
    5038:	00190413          	addi	s0,s2,1
    503c:	40828633          	sub	a2,t0,s0
    5040:	01560e33          	add	t3,a2,s5
    5044:	01c90cb3          	add	s9,s2,t3
    5048:	ff640fa3          	sb	s6,-1(s0) # ffffefff <__spectre_array_end+0xffefefff>
    504c:	fff78793          	addi	a5,a5,-1
    5050:	11905463          	blez	s9,5158 <number+0x28c>
    5054:	0007cb03          	lbu	s6,0(a5)
    5058:	0e508463          	beq	ra,t0,5140 <number+0x274>
    505c:	00200513          	li	a0,2
    5060:	06a08a63          	beq	ra,a0,50d4 <number+0x208>
    5064:	00300d13          	li	s10,3
    5068:	05a08e63          	beq	ra,s10,50c4 <number+0x1f8>
    506c:	00400d93          	li	s11,4
    5070:	05b08263          	beq	ra,s11,50b4 <number+0x1e8>
    5074:	00500393          	li	t2,5
    5078:	02708663          	beq	ra,t2,50a4 <number+0x1d8>
    507c:	00600893          	li	a7,6
    5080:	01108a63          	beq	ra,a7,5094 <number+0x1c8>
    5084:	016900a3          	sb	s6,1(s2)
    5088:	fff78793          	addi	a5,a5,-1
    508c:	0007cb03          	lbu	s6,0(a5)
    5090:	00290413          	addi	s0,s2,2
    5094:	01640023          	sb	s6,0(s0)
    5098:	fff78793          	addi	a5,a5,-1
    509c:	0007cb03          	lbu	s6,0(a5)
    50a0:	00140413          	addi	s0,s0,1
    50a4:	01640023          	sb	s6,0(s0)
    50a8:	fff78793          	addi	a5,a5,-1
    50ac:	0007cb03          	lbu	s6,0(a5)
    50b0:	00140413          	addi	s0,s0,1
    50b4:	01640023          	sb	s6,0(s0)
    50b8:	fff78793          	addi	a5,a5,-1
    50bc:	0007cb03          	lbu	s6,0(a5)
    50c0:	00140413          	addi	s0,s0,1
    50c4:	01640023          	sb	s6,0(s0)
    50c8:	fff78793          	addi	a5,a5,-1
    50cc:	0007cb03          	lbu	s6,0(a5)
    50d0:	00140413          	addi	s0,s0,1
    50d4:	00140413          	addi	s0,s0,1
    50d8:	fff78793          	addi	a5,a5,-1
    50dc:	00140493          	addi	s1,s0,1
    50e0:	ff640fa3          	sb	s6,-1(s0)
    50e4:	0007cb03          	lbu	s6,0(a5)
    50e8:	40928eb3          	sub	t4,t0,s1
    50ec:	015e85b3          	add	a1,t4,s5
    50f0:	01640023          	sb	s6,0(s0)
    50f4:	00b909b3          	add	s3,s2,a1
    50f8:	07305063          	blez	s3,5158 <number+0x28c>
    50fc:	fff7c703          	lbu	a4,-1(a5)
    5100:	ffe7cf03          	lbu	t5,-2(a5)
    5104:	ffd7cf83          	lbu	t6,-3(a5)
    5108:	ffc7c803          	lbu	a6,-4(a5)
    510c:	ffb7ca03          	lbu	s4,-5(a5)
    5110:	ffa7c303          	lbu	t1,-6(a5)
    5114:	ff97cc03          	lbu	s8,-7(a5)
    5118:	00e400a3          	sb	a4,1(s0)
    511c:	01e40123          	sb	t5,2(s0)
    5120:	ff87cb03          	lbu	s6,-8(a5)
    5124:	01f401a3          	sb	t6,3(s0)
    5128:	01040223          	sb	a6,4(s0)
    512c:	014402a3          	sb	s4,5(s0)
    5130:	00640323          	sb	t1,6(s0)
    5134:	ff878793          	addi	a5,a5,-8
    5138:	00840413          	addi	s0,s0,8
    513c:	ff840fa3          	sb	s8,-1(s0)
    5140:	00140493          	addi	s1,s0,1
    5144:	40928eb3          	sub	t4,t0,s1
    5148:	015e85b3          	add	a1,t4,s5
    514c:	01640023          	sb	s6,0(s0)
    5150:	00b909b3          	add	s3,s2,a1
    5154:	fb3044e3          	bgtz	s3,50fc <number+0x230>
    5158:	001a8a93          	addi	s5,s5,1
    515c:	015906b3          	add	a3,s2,s5
    5160:	01705c63          	blez	s7,5178 <number+0x2ac>
    5164:	00068513          	mv	a0,a3
    5168:	000b8613          	mv	a2,s7
    516c:	02000593          	li	a1,32
    5170:	4dd010ef          	jal	ra,6e4c <memset>
    5174:	017506b3          	add	a3,a0,s7
    5178:	08c12083          	lw	ra,140(sp)
    517c:	08812403          	lw	s0,136(sp)
    5180:	08412483          	lw	s1,132(sp)
    5184:	08012903          	lw	s2,128(sp)
    5188:	07c12983          	lw	s3,124(sp)
    518c:	07812a03          	lw	s4,120(sp)
    5190:	07412a83          	lw	s5,116(sp)
    5194:	07012b03          	lw	s6,112(sp)
    5198:	06c12b83          	lw	s7,108(sp)
    519c:	06812c03          	lw	s8,104(sp)
    51a0:	06412c83          	lw	s9,100(sp)
    51a4:	06012d03          	lw	s10,96(sp)
    51a8:	05c12d83          	lw	s11,92(sp)
    51ac:	00068513          	mv	a0,a3
    51b0:	09010113          	addi	sp,sp,144
    51b4:	00008067          	ret
    51b8:	0017f613          	andi	a2,a5,1
    51bc:	0117fe13          	andi	t3,a5,17
    51c0:	03000c93          	li	s9,48
    51c4:	d60604e3          	beqz	a2,4f2c <number+0x60>
    51c8:	0027f513          	andi	a0,a5,2
    51cc:	0207fd13          	andi	s10,a5,32
    51d0:	00050a63          	beqz	a0,51e4 <number+0x318>
    51d4:	d69ff06f          	j	4f3c <number+0x70>
    51d8:	00010337          	lui	t1,0x10
    51dc:	44830093          	addi	ra,t1,1096 # 10448 <__clz_tab+0x1b0>
    51e0:	d3dff06f          	j	4f1c <number+0x50>
    51e4:	00000d93          	li	s11,0
    51e8:	d75ff06f          	j	4f5c <number+0x90>
    51ec:	40b005b3          	neg	a1,a1
    51f0:	fff68693          	addi	a3,a3,-1
    51f4:	02d00d93          	li	s11,45
    51f8:	d60d14e3          	bnez	s10,4f60 <number+0x94>
    51fc:	00000493          	li	s1,0
    5200:	00c10413          	addi	s0,sp,12
    5204:	0345f9b3          	remu	s3,a1,s4
    5208:	00048a93          	mv	s5,s1
    520c:	00148493          	addi	s1,s1,1
    5210:	00940bb3          	add	s7,s0,s1
    5214:	00058e93          	mv	t4,a1
    5218:	01308b33          	add	s6,ra,s3
    521c:	000b4b03          	lbu	s6,0(s6)
    5220:	0345d5b3          	divu	a1,a1,s4
    5224:	ff6b8fa3          	sb	s6,-1(s7)
    5228:	fd4efee3          	bgeu	t4,s4,5204 <number+0x338>
    522c:	d65ff06f          	j	4f90 <number+0xc4>
    5230:	fff68693          	addi	a3,a3,-1
    5234:	02b00d93          	li	s11,43
    5238:	d25ff06f          	j	4f5c <number+0x90>
    523c:	03000f93          	li	t6,48
    5240:	07800813          	li	a6,120
    5244:	01f90023          	sb	t6,0(s2)
    5248:	010900a3          	sb	a6,1(s2)
    524c:	00290913          	addi	s2,s2,2
    5250:	d95ff06f          	j	4fe4 <number+0x118>
    5254:	ffe68693          	addi	a3,a3,-2
    5258:	d1dff06f          	j	4f74 <number+0xa8>
    525c:	03000a13          	li	s4,48
    5260:	01490023          	sb	s4,0(s2)
    5264:	00190913          	addi	s2,s2,1
    5268:	d7dff06f          	j	4fe4 <number+0x118>
    526c:	00030b93          	mv	s7,t1
    5270:	d99ff06f          	j	5008 <number+0x13c>
    5274:	00068b93          	mv	s7,a3
    5278:	d4dff06f          	j	4fc4 <number+0xf8>

0000527c <uart_send_char>:
    527c:	000117b7          	lui	a5,0x11
    5280:	9207a583          	lw	a1,-1760(a5) # 10920 <uart_0>
    5284:	fc9fa06f          	j	24c <uart_sendchar>

00005288 <ee_printf>:
    5288:	dd010113          	addi	sp,sp,-560
    528c:	1f712623          	sw	s7,492(sp)
    5290:	20112623          	sw	ra,524(sp)
    5294:	20812423          	sw	s0,520(sp)
    5298:	20912223          	sw	s1,516(sp)
    529c:	21212023          	sw	s2,512(sp)
    52a0:	1f312e23          	sw	s3,508(sp)
    52a4:	1f412c23          	sw	s4,504(sp)
    52a8:	1f512a23          	sw	s5,500(sp)
    52ac:	1f612823          	sw	s6,496(sp)
    52b0:	1f812423          	sw	s8,488(sp)
    52b4:	1f912223          	sw	s9,484(sp)
    52b8:	1fa12023          	sw	s10,480(sp)
    52bc:	1db12e23          	sw	s11,476(sp)
    52c0:	20b12a23          	sw	a1,532(sp)
    52c4:	20c12c23          	sw	a2,536(sp)
    52c8:	20d12e23          	sw	a3,540(sp)
    52cc:	22e12023          	sw	a4,544(sp)
    52d0:	22f12223          	sw	a5,548(sp)
    52d4:	23012423          	sw	a6,552(sp)
    52d8:	23112623          	sw	a7,556(sp)
    52dc:	00054e03          	lbu	t3,0(a0)
    52e0:	21410b93          	addi	s7,sp,532
    52e4:	03712223          	sw	s7,36(sp)
    52e8:	480e0ce3          	beqz	t3,5f80 <ee_printf+0xcf8>
    52ec:	0d010913          	addi	s2,sp,208
    52f0:	00010c37          	lui	s8,0x10
    52f4:	00010a37          	lui	s4,0x10
    52f8:	000109b7          	lui	s3,0x10
    52fc:	00050413          	mv	s0,a0
    5300:	00090b13          	mv	s6,s2
    5304:	058c0c13          	addi	s8,s8,88 # 10058 <errpat+0x10>
    5308:	09ca0a13          	addi	s4,s4,156 # 1009c <errpat+0x54>
    530c:	44898993          	addi	s3,s3,1096 # 10448 <__clz_tab+0x1b0>
    5310:	00010ab7          	lui	s5,0x10
    5314:	02500713          	li	a4,37
    5318:	08ee0463          	beq	t3,a4,53a0 <ee_printf+0x118>
    531c:	01cb0023          	sb	t3,0(s6)
    5320:	00144e03          	lbu	t3,1(s0)
    5324:	001b0b13          	addi	s6,s6,1
    5328:	00140413          	addi	s0,s0,1
    532c:	fe0e14e3          	bnez	t3,5314 <ee_printf+0x8c>
    5330:	000b0023          	sb	zero,0(s6)
    5334:	0d014503          	lbu	a0,208(sp)
    5338:	44050ee3          	beqz	a0,5f94 <ee_printf+0xd0c>
    533c:	00100a93          	li	s5,1
    5340:	00011a37          	lui	s4,0x11
    5344:	412a8c33          	sub	s8,s5,s2
    5348:	920a2583          	lw	a1,-1760(s4) # 10920 <uart_0>
    534c:	018909b3          	add	s3,s2,s8
    5350:	00190913          	addi	s2,s2,1
    5354:	ef9fa0ef          	jal	ra,24c <uart_sendchar>
    5358:	00094503          	lbu	a0,0(s2)
    535c:	fe0516e3          	bnez	a0,5348 <ee_printf+0xc0>
    5360:	20c12083          	lw	ra,524(sp)
    5364:	20812403          	lw	s0,520(sp)
    5368:	20412483          	lw	s1,516(sp)
    536c:	20012903          	lw	s2,512(sp)
    5370:	1f812a03          	lw	s4,504(sp)
    5374:	1f412a83          	lw	s5,500(sp)
    5378:	1f012b03          	lw	s6,496(sp)
    537c:	1ec12b83          	lw	s7,492(sp)
    5380:	1e812c03          	lw	s8,488(sp)
    5384:	1e412c83          	lw	s9,484(sp)
    5388:	1e012d03          	lw	s10,480(sp)
    538c:	1dc12d83          	lw	s11,476(sp)
    5390:	00098513          	mv	a0,s3
    5394:	1fc12983          	lw	s3,508(sp)
    5398:	23010113          	addi	sp,sp,560
    539c:	00008067          	ret
    53a0:	00000793          	li	a5,0
    53a4:	01000693          	li	a3,16
    53a8:	00144583          	lbu	a1,1(s0)
    53ac:	00140493          	addi	s1,s0,1
    53b0:	fe058093          	addi	ra,a1,-32
    53b4:	0ff0f293          	zext.b	t0,ra
    53b8:	0056ea63          	bltu	a3,t0,53cc <ee_printf+0x144>
    53bc:	00229313          	slli	t1,t0,0x2
    53c0:	018303b3          	add	t2,t1,s8
    53c4:	0003a503          	lw	a0,0(t2)
    53c8:	00050067          	jr	a0
    53cc:	fd058613          	addi	a2,a1,-48
    53d0:	0ff67813          	zext.b	a6,a2
    53d4:	00900893          	li	a7,9
    53d8:	1108f263          	bgeu	a7,a6,54dc <ee_printf+0x254>
    53dc:	02a00c93          	li	s9,42
    53e0:	fff00d13          	li	s10,-1
    53e4:	13958663          	beq	a1,s9,5510 <ee_printf+0x288>
    53e8:	02e00713          	li	a4,46
    53ec:	fff00c93          	li	s9,-1
    53f0:	0ce58063          	beq	a1,a4,54b0 <ee_printf+0x228>
    53f4:	0df5ff13          	andi	t5,a1,223
    53f8:	04c00f93          	li	t6,76
    53fc:	09ff0263          	beq	t5,t6,5480 <ee_printf+0x1f8>
    5400:	fbf58713          	addi	a4,a1,-65
    5404:	0ff77093          	zext.b	ra,a4
    5408:	03700293          	li	t0,55
    540c:	0412e863          	bltu	t0,ra,545c <ee_printf+0x1d4>
    5410:	00209313          	slli	t1,ra,0x2
    5414:	014303b3          	add	t2,t1,s4
    5418:	0003a503          	lw	a0,0(t2)
    541c:	00050067          	jr	a0
    5420:	0017e793          	ori	a5,a5,1
    5424:	00048413          	mv	s0,s1
    5428:	f81ff06f          	j	53a8 <ee_printf+0x120>
    542c:	0107e793          	ori	a5,a5,16
    5430:	00048413          	mv	s0,s1
    5434:	f75ff06f          	j	53a8 <ee_printf+0x120>
    5438:	0047e793          	ori	a5,a5,4
    543c:	00048413          	mv	s0,s1
    5440:	f69ff06f          	j	53a8 <ee_printf+0x120>
    5444:	0207e793          	ori	a5,a5,32
    5448:	00048413          	mv	s0,s1
    544c:	f5dff06f          	j	53a8 <ee_printf+0x120>
    5450:	0087e793          	ori	a5,a5,8
    5454:	00048413          	mv	s0,s1
    5458:	f51ff06f          	j	53a8 <ee_printf+0x120>
    545c:	00048d93          	mv	s11,s1
    5460:	00058813          	mv	a6,a1
    5464:	02500493          	li	s1,37
    5468:	4c980c63          	beq	a6,s1,5940 <ee_printf+0x6b8>
    546c:	009b0023          	sb	s1,0(s6)
    5470:	000dc583          	lbu	a1,0(s11)
    5474:	001b0b13          	addi	s6,s6,1
    5478:	ea058ce3          	beqz	a1,5330 <ee_printf+0xa8>
    547c:	4c80006f          	j	5944 <ee_printf+0x6bc>
    5480:	0014c803          	lbu	a6,1(s1)
    5484:	03700613          	li	a2,55
    5488:	00148d93          	addi	s11,s1,1
    548c:	fbf80893          	addi	a7,a6,-65
    5490:	0ff8f413          	zext.b	s0,a7
    5494:	fc8668e3          	bltu	a2,s0,5464 <ee_printf+0x1dc>
    5498:	00010eb7          	lui	t4,0x10
    549c:	00241e13          	slli	t3,s0,0x2
    54a0:	17ce8f13          	addi	t5,t4,380 # 1017c <errpat+0x134>
    54a4:	01ee0fb3          	add	t6,t3,t5
    54a8:	000fa703          	lw	a4,0(t6)
    54ac:	00070067          	jr	a4
    54b0:	0014c583          	lbu	a1,1(s1)
    54b4:	00900093          	li	ra,9
    54b8:	00148693          	addi	a3,s1,1
    54bc:	fd058293          	addi	t0,a1,-48
    54c0:	0ff2f313          	zext.b	t1,t0
    54c4:	2460f863          	bgeu	ra,t1,5714 <ee_printf+0x48c>
    54c8:	02a00393          	li	t2,42
    54cc:	26758e63          	beq	a1,t2,5748 <ee_printf+0x4c0>
    54d0:	00068493          	mv	s1,a3
    54d4:	00000c93          	li	s9,0
    54d8:	f1dff06f          	j	53f4 <ee_printf+0x16c>
    54dc:	00000d13          	li	s10,0
    54e0:	00900413          	li	s0,9
    54e4:	002d1d93          	slli	s11,s10,0x2
    54e8:	01ad8d33          	add	s10,s11,s10
    54ec:	001d1e13          	slli	t3,s10,0x1
    54f0:	00148493          	addi	s1,s1,1
    54f4:	00be0eb3          	add	t4,t3,a1
    54f8:	0004c583          	lbu	a1,0(s1)
    54fc:	fd0e8d13          	addi	s10,t4,-48
    5500:	fd058f13          	addi	t5,a1,-48
    5504:	0fff7f93          	zext.b	t6,t5
    5508:	fdf47ee3          	bgeu	s0,t6,54e4 <ee_printf+0x25c>
    550c:	eddff06f          	j	53e8 <ee_printf+0x160>
    5510:	000bad03          	lw	s10,0(s7)
    5514:	00244583          	lbu	a1,2(s0)
    5518:	00240493          	addi	s1,s0,2
    551c:	004b8b93          	addi	s7,s7,4
    5520:	ec0d54e3          	bgez	s10,53e8 <ee_printf+0x160>
    5524:	41a00d33          	neg	s10,s10
    5528:	0107e793          	ori	a5,a5,16
    552c:	ebdff06f          	j	53e8 <ee_printf+0x160>
    5530:	0407e793          	ori	a5,a5,64
    5534:	06c00713          	li	a4,108
    5538:	22e58a63          	beq	a1,a4,576c <ee_printf+0x4e4>
    553c:	000baf83          	lw	t6,0(s7)
    5540:	004b8b93          	addi	s7,s7,4
    5544:	000fc703          	lbu	a4,0(t6)
    5548:	38071e63          	bnez	a4,58e4 <ee_printf+0x65c>
    554c:	03000493          	li	s1,48
    5550:	08910023          	sb	s1,128(sp)
    5554:	00100393          	li	t2,1
    5558:	1b038c93          	addi	s9,t2,432
    555c:	02010693          	addi	a3,sp,32
    5560:	02e00813          	li	a6,46
    5564:	00dc8eb3          	add	t4,s9,a3
    5568:	eb0e8823          	sb	a6,-336(t4)
    556c:	001fc703          	lbu	a4,1(t6)
    5570:	00138e13          	addi	t3,t2,1
